
ethernet.elf:     file format elf32-littlenios2
ethernet.elf
architecture: nios2:r1, flags 0x00000112:
EXEC_P, HAS_SYMS, D_PAGED
start address 0x08000230

Program Header:
    LOAD off    0x00001000 vaddr 0x08000000 paddr 0x08000000 align 2**12
         filesz 0x00000020 memsz 0x00000020 flags r-x
    LOAD off    0x00001020 vaddr 0x08000020 paddr 0x08000020 align 2**12
         filesz 0x000187ac memsz 0x000187ac flags r-x
    LOAD off    0x000197cc vaddr 0x080187cc paddr 0x0801a344 align 2**12
         filesz 0x00001b78 memsz 0x00001b78 flags rw-
    LOAD off    0x0001bebc vaddr 0x0801bebc paddr 0x0801bebc align 2**12
         filesz 0x00000000 memsz 0x0000069c flags rw-

Sections:
Idx Name          Size      VMA       LMA       File off  Algn
  0 .entry        00000020  08000000  08000000  00001000  2**5
                  CONTENTS, ALLOC, LOAD, READONLY, CODE
  1 .exceptions   00000210  08000020  08000020  00001020  2**2
                  CONTENTS, ALLOC, LOAD, READONLY, CODE
  2 .text         00017eb0  08000230  08000230  00001230  2**2
                  CONTENTS, ALLOC, LOAD, READONLY, CODE
  3 .rodata       000006ec  080180e0  080180e0  000190e0  2**2
                  CONTENTS, ALLOC, LOAD, READONLY, DATA
  4 .rwdata       00001b78  080187cc  0801a344  000197cc  2**2
                  CONTENTS, ALLOC, LOAD, DATA, SMALL_DATA
  5 .bss          0000069c  0801bebc  0801bebc  0001bebc  2**2
                  ALLOC, SMALL_DATA
  6 .onchip_memory2_0 00000000  00000000  00000000  0001b344  2**0
                  CONTENTS
  7 .sdram        00000000  0801c558  0801c558  0001b344  2**0
                  CONTENTS
  8 .comment      00000023  00000000  00000000  0001b344  2**0
                  CONTENTS, READONLY
  9 .debug_aranges 00001270  00000000  00000000  0001b368  2**3
                  CONTENTS, READONLY, DEBUGGING
 10 .debug_info   00030d76  00000000  00000000  0001c5d8  2**0
                  CONTENTS, READONLY, DEBUGGING
 11 .debug_abbrev 0000bff5  00000000  00000000  0004d34e  2**0
                  CONTENTS, READONLY, DEBUGGING
 12 .debug_line   0000ece3  00000000  00000000  00059343  2**0
                  CONTENTS, READONLY, DEBUGGING
 13 .debug_frame  00003b7c  00000000  00000000  00068028  2**2
                  CONTENTS, READONLY, DEBUGGING
 14 .debug_str    0000605d  00000000  00000000  0006bba4  2**0
                  CONTENTS, READONLY, DEBUGGING
 15 .debug_loc    00018411  00000000  00000000  00071c01  2**0
                  CONTENTS, READONLY, DEBUGGING
 16 .debug_alt_sim_info 00000040  00000000  00000000  0008a014  2**2
                  CONTENTS, READONLY, DEBUGGING
 17 .debug_ranges 00001a88  00000000  00000000  0008a058  2**3
                  CONTENTS, READONLY, DEBUGGING
 18 .thread_model 00000003  00000000  00000000  000913ce  2**0
                  CONTENTS, READONLY
 19 .cpu          0000000c  00000000  00000000  000913d1  2**0
                  CONTENTS, READONLY
 20 .qsys         00000001  00000000  00000000  000913dd  2**0
                  CONTENTS, READONLY
 21 .simulation_enabled 00000001  00000000  00000000  000913de  2**0
                  CONTENTS, READONLY
 22 .sysid_hash   00000004  00000000  00000000  000913df  2**0
                  CONTENTS, READONLY
 23 .sysid_base   00000004  00000000  00000000  000913e3  2**0
                  CONTENTS, READONLY
 24 .sysid_time   00000004  00000000  00000000  000913e7  2**0
                  CONTENTS, READONLY
 25 .stderr_dev   0000000b  00000000  00000000  000913eb  2**0
                  CONTENTS, READONLY
 26 .stdin_dev    0000000b  00000000  00000000  000913f6  2**0
                  CONTENTS, READONLY
 27 .stdout_dev   0000000b  00000000  00000000  00091401  2**0
                  CONTENTS, READONLY
 28 .sopc_system_name 00000008  00000000  00000000  0009140c  2**0
                  CONTENTS, READONLY
 29 .quartus_project_dir 00000027  00000000  00000000  00091414  2**0
                  CONTENTS, READONLY
 30 .jdi          00004e82  00000000  00000000  0009143b  2**0
                  CONTENTS, READONLY
 31 .sopcinfo     00083df0  00000000  00000000  000962bd  2**0
                  CONTENTS, READONLY
SYMBOL TABLE:
08000000 l    d  .entry	00000000 .entry
08000020 l    d  .exceptions	00000000 .exceptions
08000230 l    d  .text	00000000 .text
080180e0 l    d  .rodata	00000000 .rodata
080187cc l    d  .rwdata	00000000 .rwdata
0801bebc l    d  .bss	00000000 .bss
00000000 l    d  .onchip_memory2_0	00000000 .onchip_memory2_0
0801c558 l    d  .sdram	00000000 .sdram
00000000 l    d  .comment	00000000 .comment
00000000 l    d  .debug_aranges	00000000 .debug_aranges
00000000 l    d  .debug_info	00000000 .debug_info
00000000 l    d  .debug_abbrev	00000000 .debug_abbrev
00000000 l    d  .debug_line	00000000 .debug_line
00000000 l    d  .debug_frame	00000000 .debug_frame
00000000 l    d  .debug_str	00000000 .debug_str
00000000 l    d  .debug_loc	00000000 .debug_loc
00000000 l    d  .debug_alt_sim_info	00000000 .debug_alt_sim_info
00000000 l    d  .debug_ranges	00000000 .debug_ranges
00000000 l    df *ABS*	00000000 ../ethernet_bsp//obj/HAL/src/crt0.o
08000268 l       .text	00000000 alt_after_alt_main
00000000 l    df *ABS*	00000000 alt_irq_handler.c
00000000 l    df *ABS*	00000000 alt_instruction_exception_entry.c
00000000 l    df *ABS*	00000000 HID.c
00000000 l    df *ABS*	00000000 MAX3421E.c
00000000 l    df *ABS*	00000000 transfer.c
0801becc l     O .bss	00000004 usb_delay.2608
0801bed0 l     O .bss	00000001 tmp_addr.2609
00000000 l    df *ABS*	00000000 EtherCard.cpp
00000000 l    df *ABS*	00000000 bufferfiller.cpp
00000000 l    df *ABS*	00000000 dhcp.cpp
0801befc l     O .bss	00000001 _ZL9dhcpState
080187fc l     O .rwdata	00000020 _ZL8hostname
0801bf00 l     O .bss	00000004 _ZL10currentXid
0801bf04 l     O .bss	00000004 _ZL10stateTimer
0801bf08 l     O .bss	00000004 _ZL10leaseStart
0801bf0c l     O .bss	00000004 _ZL9leaseTime
0801bf10 l     O .bss	00000004 _ZL6bufPtr
0801bf14 l     O .bss	00000004 _ZL20dhcpCustomOptionList
0801bf18 l     O .bss	00000004 _ZL24dhcpCustomOptionCallback
0800280c l     F .text	0000003c _ZL8addToBufh
08002848 l     F .text	00000070 _ZL8addByteshPKh
080028b8 l     F .text	00000064 _ZL9addOptionhhPKh
0800291c l     F .text	000002f0 _ZL17send_dhcp_messagePh
0801a2d4 l     O .rwdata	00000004 _ZZL17send_dhcp_messagePhE6cookie
08002c0c l     F .text	000000d4 _ZL18process_dhcp_offertPh
08002ce0 l     F .text	00000210 _ZL16process_dhcp_ackt
08002ef0 l     F .text	00000130 _ZL26dhcp_received_message_typeth
08003020 l     F .text	00000058 _ZL10toAsciiHexh
0801bf1c l     O .bss	00000002 _ZZN9EtherCard21dhcpAddOptionCallbackEhPFvhPKhhEE10optionList
00000000 l    df *ABS*	00000000 dns.cpp
0801bf1e l     O .bss	00000001 _ZL8dnstid_l
08003478 l     F .text	000001f0 _ZL10dnsRequestPKcb
08003668 l     F .text	000001e8 _ZL17checkForDnsAnswert
00000000 l    df *ABS*	00000000 enc28j60.cpp
0801bf24 l     O .bss	00000001 _ZL12Enc28j60Bank
0801bf25 l     O .bss	00000001 _ZL9selectPin
08003a4c l     F .text	00000080 _ZL7writeOphhh
08003acc l     F .text	000000c4 _ZL6readOphh
08003b90 l     F .text	00000080 _ZL7SetBankh
08003c10 l     F .text	0000005c _ZL12writeRegBytehh
08003c6c l     F .text	00000074 _ZL8writeReght
08003ce0 l     F .text	00000048 _ZL11readRegByteh
08003d28 l     F .text	00000064 _ZL7readRegh
08003d8c l     F .text	00000078 _ZL8writePhyht
08003e04 l     F .text	00000080 _ZL11readPhyByteh
08003ebc l     F .text	000000b4 _ZL10getMacAddrv
080041fc l     F .text	00000108 _ZL7readBuftPh
08004304 l     F .text	00000150 _ZL8writeBuftPKh
0801bf26 l     O .bss	00000001 _ZZN8ENC28J6013packetReceiveEvE16unreleasedPacket
0801bf28 l     O .bss	00000002 _ZZN8ENC28J6013packetReceiveEvE14gNextPacketPtr
00000000 l    df *ABS*	00000000 tcpip.cpp
0801a2dc l     O .rwdata	00000001 _ZL20tcpclient_src_port_l
0801bf2c l     O .bss	00000001 _ZL6tcp_fd
0801bf2d l     O .bss	00000001 _ZL16tcp_client_state
0801bf2e l     O .bss	00000001 _ZL17tcp_client_port_h
0801bf2f l     O .bss	00000001 _ZL17tcp_client_port_l
0801bf30 l     O .bss	00000004 _ZL20client_tcp_result_cb
0801bf34 l     O .bss	00000004 _ZL22client_tcp_datafill_cb
0801bf38 l     O .bss	00000001 _ZL6www_fd
0801bf3c l     O .bss	00000004 _ZL17client_browser_cb
0801bf40 l     O .bss	00000004 _ZL27client_additionalheaderline
0801bf44 l     O .bss	00000004 _ZL14client_postval
0801bf48 l     O .bss	00000004 _ZL13client_urlbuf
0801bf4c l     O .bss	00000004 _ZL17client_urlbuf_var
0801bf50 l     O .bss	00000004 _ZL14client_hoststr
0801bf54 l     O .bss	00000004 _ZL7icmp_cb
0801bf58 l     O .bss	00000006 _ZL11destmacaddr
0801bf5e l     O .bss	00000001 _ZL19waiting_for_dns_mac
0801bf5f l     O .bss	00000001 _ZL11has_dns_mac
0801bf60 l     O .bss	00000001 _ZL20waiting_for_dest_mac
0801bf61 l     O .bss	00000001 _ZL12has_dest_mac
0801bf62 l     O .bss	00000006 _ZL9gwmacaddr
0801bf68 l     O .bss	00000001 _ZL9waitgwmac
0801bf6a l     O .bss	00000002 _ZL13info_data_len
0801a2dd l     O .rwdata	00000001 _ZL6seqnum
0801a2de l     O .rwdata	00000001 _ZL9result_fd
0801bf6c l     O .bss	00000004 _ZL10result_ptr
0801bf70 l     O .bss	00000004 _ZL3SEQ
0801a2e5 l     O .rwdata	00000008 _ZL9arpreqhdr
080182f4 l     O .rodata	00000009 _ZL5iphdr
080182fd l     O .rodata	0000000a _ZL9ntpreqhdr
08004820 l     F .text	00000184 _ZL13fill_checksumhhth
080049a4 l     F .text	00000050 _ZL7setMACsPKh
080049f4 l     F .text	00000060 _ZL12setMACandIPsPKhS0_
08004a54 l     F .text	00000044 _ZL24check_ip_message_is_fromPKh
08004a98 l     F .text	000000bc _ZL6is_lanPKhS0_
08004b54 l     F .text	00000090 _ZL25eth_type_is_arp_and_my_ipt
08004be4 l     F .text	000000dc _ZL24eth_type_is_ip_and_my_ipt
08004cc0 l     F .text	00000080 _ZL20fill_ip_hdr_checksumv
08004d40 l     F .text	0000006c _ZL11make_eth_ipv
08004dac l     F .text	00000100 _ZL8step_seqth
08004eac l     F .text	000000e4 _ZL12make_tcpheadth
08004f90 l     F .text	000000c8 _ZL28make_arp_answer_from_requestv
08005058 l     F .text	000000a4 _ZL28make_echo_reply_from_requestt
0800527c l     F .text	0000012c _ZL24make_tcp_synack_from_synv
08005438 l     F .text	000000f0 _ZL21make_tcp_ack_from_anysh
08005528 l     F .text	000000b8 _ZL30make_tcp_ack_with_data_noflagst
08005648 l     F .text	000000a8 _ZL16getBigEndianLongh
080056f0 l     F .text	00000088 _ZL17setSequenceNumberm
080060b4 l     F .text	000000d4 _ZL17client_arp_whohasPh
08006208 l     F .text	00000068 _ZL16client_store_macPhS_
08006334 l     F .text	00000204 _ZL10client_synhhh
080065a4 l     F .text	00000168 _ZL31www_client_internal_datafill_cbh
0800670c l     F .text	000000f8 _ZL29www_client_internal_result_cbhhtt
08006974 l     F .text	00000028 _ZL15tcp_datafill_cbh
0800699c l     F .text	00000064 _ZL13tcp_result_cbhhtt
00000000 l    df *ABS*	00000000 udpserver.cpp
00000000 l    df *ABS*	00000000 webutil.cpp
00000000 l    df *ABS*	00000000 main.cpp
0801a2ed l     O .rwdata	00000006 _ZL5mymac
0801bf78 l     O .bss	00000004 _ZL5timer
08018404 l     O .rodata	0000000f _ZL7website
08007a20 l     F .text	000000a0 _ZL11my_callbackhtt
0801a2ff l     O .rwdata	00000004 _ZZ4mainE4mask
0801a2fb l     O .rwdata	00000004 _ZZ4mainE3dns
0801a2f7 l     O .rwdata	00000004 _ZZ4mainE2gw
0801a2f3 l     O .rwdata	00000004 _ZZ4mainE2ip
00000000 l    df *ABS*	00000000 lib2-divmod.c
00000000 l    df *ABS*	00000000 lib2-mul.c
00000000 l    df *ABS*	00000000 clock.c
00000000 l    df *ABS*	00000000 impure.c
0801881c l     O .rwdata	00000424 impure_data
00000000 l    df *ABS*	00000000 itoa.c
00000000 l    df *ABS*	00000000 memcmp.c
00000000 l    df *ABS*	00000000 memcpy.c
00000000 l    df *ABS*	00000000 memset.c
00000000 l    df *ABS*	00000000 printf.c
00000000 l    df *ABS*	00000000 putchar.c
00000000 l    df *ABS*	00000000 puts.c
00000000 l    df *ABS*	00000000 strcpy.c
00000000 l    df *ABS*	00000000 strlen.c
00000000 l    df *ABS*	00000000 strncmp.c
00000000 l    df *ABS*	00000000 strncpy.c
00000000 l    df *ABS*	00000000 time.c
00000000 l    df *ABS*	00000000 timesr.c
00000000 l    df *ABS*	00000000 utoa.c
00000000 l    df *ABS*	00000000 vfprintf.c
08018516 l     O .rodata	00000010 zeroes.4404
0800aa94 l     F .text	000000bc __sbprintf
08018526 l     O .rodata	00000010 blanks.4403
00000000 l    df *ABS*	00000000 wsetup.c
00000000 l    df *ABS*	00000000 dtoa.c
0800aca4 l     F .text	00000228 quorem
00000000 l    df *ABS*	00000000 fflush.c
00000000 l    df *ABS*	00000000 findfp.c
0800c7fc l     F .text	00000008 __fp_unlock
0800c810 l     F .text	0000019c __sinit.part.1
0800c9ac l     F .text	00000008 __fp_lock
00000000 l    df *ABS*	00000000 mallocr.c
00000000 l    df *ABS*	00000000 fvwrite.c
00000000 l    df *ABS*	00000000 fwalk.c
00000000 l    df *ABS*	00000000 gettimeofdayr.c
00000000 l    df *ABS*	00000000 int_errno.c
00000000 l    df *ABS*	00000000 locale.c
08018c60 l     O .rwdata	00000020 lc_ctype_charset
08018c40 l     O .rwdata	00000020 lc_message_charset
08018c80 l     O .rwdata	00000038 lconv
00000000 l    df *ABS*	00000000 makebuf.c
00000000 l    df *ABS*	00000000 mallocr.c
00000000 l    df *ABS*	00000000 memchr.c
00000000 l    df *ABS*	00000000 memmove.c
00000000 l    df *ABS*	00000000 mprec.c
08018554 l     O .rodata	0000000c p05.2768
00000000 l    df *ABS*	00000000 putc.c
00000000 l    df *ABS*	00000000 mallocr.c
00000000 l    df *ABS*	00000000 s_fpclassify.c
00000000 l    df *ABS*	00000000 sbrkr.c
00000000 l    df *ABS*	00000000 stdio.c
00000000 l    df *ABS*	00000000 strcmp.c
00000000 l    df *ABS*	00000000 vfprintf.c
0800fdd4 l     F .text	000000fc __sprint_r.part.0
08018678 l     O .rodata	00000010 zeroes.4349
08011410 l     F .text	000000bc __sbprintf
08018688 l     O .rodata	00000010 blanks.4348
00000000 l    df *ABS*	00000000 wbuf.c
00000000 l    df *ABS*	00000000 writer.c
00000000 l    df *ABS*	00000000 closer.c
00000000 l    df *ABS*	00000000 mallocr.c
00000000 l    df *ABS*	00000000 fclose.c
00000000 l    df *ABS*	00000000 fputwc.c
00000000 l    df *ABS*	00000000 fstatr.c
00000000 l    df *ABS*	00000000 isattyr.c
00000000 l    df *ABS*	00000000 lseekr.c
00000000 l    df *ABS*	00000000 readr.c
00000000 l    df *ABS*	00000000 wcrtomb.c
00000000 l    df *ABS*	00000000 wctomb_r.c
00000000 l    df *ABS*	00000000 libgcc2.c
00000000 l    df *ABS*	00000000 libgcc2.c
00000000 l    df *ABS*	00000000 adddf3.c
00000000 l    df *ABS*	00000000 divdf3.c
00000000 l    df *ABS*	00000000 eqdf2.c
00000000 l    df *ABS*	00000000 gedf2.c
00000000 l    df *ABS*	00000000 ledf2.c
00000000 l    df *ABS*	00000000 muldf3.c
00000000 l    df *ABS*	00000000 subdf3.c
00000000 l    df *ABS*	00000000 fixdfsi.c
00000000 l    df *ABS*	00000000 floatsidf.c
00000000 l    df *ABS*	00000000 floatunsidf.c
00000000 l    df *ABS*	00000000 libgcc2.c
00000000 l    df *ABS*	00000000 libgcc2.c
00000000 l    df *ABS*	00000000 alt_close.c
0801527c l     F .text	0000003c alt_get_errno
00000000 l    df *ABS*	00000000 alt_dev.c
08015390 l     F .text	0000002c alt_dev_null_write
00000000 l    df *ABS*	00000000 alt_errno.c
00000000 l    df *ABS*	00000000 alt_fstat.c
080153bc l     F .text	0000003c alt_get_errno
00000000 l    df *ABS*	00000000 alt_gettod.c
00000000 l    df *ABS*	00000000 alt_isatty.c
080156a4 l     F .text	0000003c alt_get_errno
00000000 l    df *ABS*	00000000 alt_load.c
0801578c l     F .text	00000068 alt_load_section
00000000 l    df *ABS*	00000000 alt_lseek.c
08015878 l     F .text	0000003c alt_get_errno
00000000 l    df *ABS*	00000000 alt_main.c
00000000 l    df *ABS*	00000000 alt_malloc_lock.c
00000000 l    df *ABS*	00000000 alt_read.c
08015a54 l     F .text	0000003c alt_get_errno
00000000 l    df *ABS*	00000000 alt_release_fd.c
00000000 l    df *ABS*	00000000 alt_sbrk.c
0801a334 l     O .rwdata	00000004 heap_end
00000000 l    df *ABS*	00000000 alt_tick.c
00000000 l    df *ABS*	00000000 alt_times.c
08015e6c l     F .text	0000003c alt_get_errno
00000000 l    df *ABS*	00000000 alt_usleep.c
00000000 l    df *ABS*	00000000 alt_write.c
08015f50 l     F .text	0000003c alt_get_errno
00000000 l    df *ABS*	00000000 alt_sys_init.c
0801608c l     F .text	00000034 alt_dev_reg
08019268 l     O .rwdata	00001060 jtag_uart_0
00000000 l    df *ABS*	00000000 altera_avalon_jtag_uart_fd.c
00000000 l    df *ABS*	00000000 altera_avalon_jtag_uart_init.c
08016384 l     F .text	0000020c altera_avalon_jtag_uart_irq
08016590 l     F .text	000000a0 altera_avalon_jtag_uart_timeout
00000000 l    df *ABS*	00000000 altera_avalon_jtag_uart_ioctl.c
00000000 l    df *ABS*	00000000 altera_avalon_jtag_uart_read.c
00000000 l    df *ABS*	00000000 altera_avalon_jtag_uart_write.c
00000000 l    df *ABS*	00000000 altera_avalon_spi.c
00000000 l    df *ABS*	00000000 altera_avalon_timer_sc.c
08016dc4 l     F .text	00000078 alt_avalon_timer_sc_irq
00000000 l    df *ABS*	00000000 alt_alarm_start.c
00000000 l    df *ABS*	00000000 alt_busy_sleep.c
00000000 l    df *ABS*	00000000 alt_dcache_flush_all.c
00000000 l    df *ABS*	00000000 alt_dev_llist_insert.c
0801715c l     F .text	0000003c alt_get_errno
00000000 l    df *ABS*	00000000 alt_do_ctors.c
00000000 l    df *ABS*	00000000 alt_do_dtors.c
00000000 l    df *ABS*	00000000 alt_icache_flush_all.c
00000000 l    df *ABS*	00000000 alt_iic.c
00000000 l    df *ABS*	00000000 alt_iic_isr_register.c
00000000 l    df *ABS*	00000000 alt_io_redirect.c
080175bc l     F .text	000000e4 alt_open_fd
00000000 l    df *ABS*	00000000 alt_irq_vars.c
00000000 l    df *ABS*	00000000 alt_open.c
0801771c l     F .text	0000003c alt_get_errno
08017758 l     F .text	000000ec alt_file_locked
00000000 l    df *ABS*	00000000 altera_nios2_gen2_irq.c
00000000 l    df *ABS*	00000000 alt_find_dev.c
00000000 l    df *ABS*	00000000 alt_find_file.c
00000000 l    df *ABS*	00000000 alt_get_fd.c
00000000 l    df *ABS*	00000000 atexit.c
00000000 l    df *ABS*	00000000 exit.c
00000000 l    df *ABS*	00000000 __atexit.c
00000000 l    df *ABS*	00000000 __call_atexit.c
00000000 l    df *ABS*	00000000 libgcc2.c
00000000 l    df *ABS*	00000000 alt_exit.c
0801bfc0 g     O .bss	00000004 alt_instruction_exception_handler
080076ec g     F .text	00000028 _ZN9EtherCard18udpServerListeningEv
08008218 g     F .text	00000018 putchar
080023f8 g     F .text	000000a0 _ZN9EtherCard4wtoaEtPc
0800f2b0 g     F .text	00000074 _mprec_log10
0800f39c g     F .text	0000008c __any_on
08011b1c g     F .text	00000054 _isatty_r
08018560 g     O .rodata	00000028 __mprec_tinytens
08015990 g     F .text	0000007c alt_main
08008304 g     F .text	00000090 strcpy
0801a2c8 g     O .rwdata	00000008 ctrl_xfers
08008230 g     F .text	000000c0 _puts_r
0801c458 g     O .bss	00000100 alt_irq
08011b70 g     F .text	00000060 _lseek_r
080068f0 g     F .text	00000084 _ZN9EtherCard8httpPostEPKcS1_S1_S1_PFvhttE
08001a48 g     F .text	00000644 USB_Task
080079a0 g     F .text	00000040 _ZN9EtherCard7copyMacEPhPKh
0801a344 g       *ABS*	00000000 __flash_rwdata_start
08007468  w    F .text	00000038 _ZNK12BufferFiller8positionEv
08013c54 g     F .text	00000088 .hidden __eqdf2
0800d630 g     F .text	0000005c _gettimeofday_r
0801c558 g       *ABS*	00000000 __alt_heap_start
080081d4 g     F .text	0000003c printf
08011c30 g     F .text	0000009c _wcrtomb_r
08000b44 g     F .text	00000088 kbdPoll
080041c4 g     F .text	00000038 _ZN8ENC28J608isLinkUpEv
0800fc94 g     F .text	0000005c __sseek
0800cb5c g     F .text	00000010 __sinit
080114cc g     F .text	00000140 __swbuf_r
0800d68c g     F .text	0000007c _setlocale_r
0800c9b4 g     F .text	00000078 __sfmoreglue
08015a30 g     F .text	00000024 __malloc_unlock
0801bf74 g     O .bss	00000001 numListeners
0800e214 g     F .text	0000015c memmove
0800cb44 g     F .text	00000018 _cleanup
0800e370 g     F .text	000000a8 _Balloc
08000c98 g     F .text	0000008c MAXreg_wr
080187cc g     O .rwdata	00000030 ClientDriverTable
08006ac0 g     F .text	00000088 _ZN9EtherCard24packetLoopIcmpCheckReplyEPKh
08013cdc g     F .text	000000dc .hidden __gtdf2
080179a0 g     F .text	00000024 altera_nios2_gen2_irq_init
0800208c g     F .text	0000002c MSDProbe
08000000 g     F .entry	0000000c __reset
08015ea8 g     F .text	00000078 times
08006868 g     F .text	00000088 _ZN9EtherCard9browseUrlEPKcS1_S1_S1_PFvhttE
08001548 g     F .text	000000e8 XferCtrlData
08000020 g       *ABS*	00000000 __flash_exceptions_start
0801bfc4 g     O .bss	00000010 hid_ep
08011ac0 g     F .text	0000005c _fstat_r
0801bf7c g     O .bss	00000004 errno
08003850 g     F .text	00000168 _ZN9EtherCard9dnsLookupEPKcb
0800fc10 g     F .text	00000008 __seofread
08003288 g     F .text	000001f0 _ZN9EtherCard16DhcpStateMachineEt
0801bfac g     O .bss	00000004 alt_argv
080222c8 g       *ABS*	00000000 _gp
08015f20 g     F .text	00000030 usleep
0801bee9 g     O .bss	00000004 _ZN9EtherCard6dhcpipE
08000e94 g     F .text	00000080 MAXreg_rd
080190e8 g     O .rwdata	00000180 alt_fd_list
08000a7c g     F .text	00000040 HID_init
08008210 g     F .text	00000008 _putchar_r
080179c4 g     F .text	00000090 alt_find_dev
08008638 g     F .text	00000008 _times_r
08007f34 g     F .text	00000148 memcpy
0800c804 g     F .text	0000000c _cleanup_r
08015094 g     F .text	000000dc .hidden __floatsidf
080176a0 g     F .text	0000007c alt_io_redirect
08013db8 g     F .text	000000f4 .hidden __ltdf2
080180e0 g       *ABS*	00000000 __DTOR_END__
080082f0 g     F .text	00000014 puts
08017c20 g     F .text	0000009c alt_exception_cause_generated_bad_addr
0800faf4 g     F .text	00000074 __fpclassifyd
08007714 g     F .text	000001b8 _ZN9EtherCard27udpServerHasProcessedPacketEt
080074a0 g     F .text	000000a0 _ZN9EtherCard21udpServerListenOnPortEPFvtPhtPKctEt
0800f20c g     F .text	000000a4 __ratio
080113f4 g     F .text	0000001c __vfiprintf_internal
0801bed2 g     O .bss	00000001 ether
08016788 g     F .text	0000021c altera_avalon_jtag_uart_read
080081a4 g     F .text	00000030 _printf_r
00000000 g       *ABS*	00000000 __alt_mem_onchip_memory2_0
08007d1c g     F .text	00000064 .hidden __udivsi3
080156e0 g     F .text	000000ac isatty
080185b0 g     O .rodata	000000c8 __mprec_tens
0801bfec g     O .bss	00000040 listeners
080061b4 g     F .text	00000054 _ZN9EtherCard16clientWaitingDnsEv
0800d708 g     F .text	0000000c __locale_charset
0801bf98 g     O .bss	00000008 alt_timezone
08002498 g     F .text	0000034c _ZN12BufferFiller6emit_pEPKcz
0801bf94 g     O .bss	00000004 __malloc_top_pad
0801a2d0 g     O .rwdata	00000001 usb_task_state
0801a30c g     O .rwdata	00000004 __mb_cur_max
08007eb4 g     F .text	00000004 itoa
0800d738 g     F .text	0000000c _localeconv_r
08005b3c g     F .text	000000f4 _ZN9EtherCard16ntpProcessAnswerEPmh
0800e7a4 g     F .text	0000003c __i2b
0800cfe0 g     F .text	000004c8 __sfvwrite_r
0801a2d8 g     O .rwdata	00000004 GPIO_PIO
0800fb68 g     F .text	00000054 _sbrk_r
080053a8 g     F .text	00000090 _ZN9EtherCard19getTcpPayloadLengthEv
08011bd0 g     F .text	00000060 _read_r
080011fc g     F .text	00000094 MAX3421E_init
0801a32c g     O .rwdata	00000004 alt_max_fd
080117b4 g     F .text	000000f0 _fclose_r
0800c7cc g     F .text	00000030 fflush
0801bf90 g     O .bss	00000004 __malloc_max_sbrked_mem
08003f70 g     F .text	00000254 _ZN8ENC28J6010initializeEtPKhh
080129d8 g     F .text	000008ac .hidden __adddf3
08002364 g     F .text	00000094 _ZN9EtherCard11staticSetupEPKhS1_S1_S1_
0800efb4 g     F .text	0000010c __b2d
08012414 g     F .text	000005c4 .hidden __umoddi3
080158b4 g     F .text	000000dc lseek
0801a304 g     O .rwdata	00000004 _global_impure_ptr
0800f590 g     F .text	00000564 _realloc_r
0801c558 g       *ABS*	00000000 __bss_end
080174cc g     F .text	000000f0 alt_iic_isr_register
08015d64 g     F .text	00000108 alt_tick
08011e18 g     F .text	000005fc .hidden __udivdi3
08011a1c g     F .text	00000024 _fputwc_r
08018588 g     O .rodata	00000028 __mprec_bigtens
0800e588 g     F .text	00000104 __s2b
08015170 g     F .text	000000a8 .hidden __floatunsidf
0800ecf4 g     F .text	00000060 __mcmp
080027e4 g     F .text	00000028 _Z6millisv
080039b8 g     F .text	00000058 _Z5delayi
0800cb7c g     F .text	00000018 __fp_lock_all
08017480 g     F .text	0000004c alt_ic_irq_enabled
080057f0 g     F .text	00000070 _ZN9EtherCard26httpServerReply_with_flagsEth
08015cc8 g     F .text	0000009c alt_alarm_stop
0801bfbc g     O .bss	00000004 alt_irq_active
08002154 g     F .text	0000002c DummyProbe
08005c30 g     F .text	00000188 _ZN9EtherCard10udpPrepareEtPKht
080000fc g     F .exceptions	000000d4 alt_irq_handler
080190c0 g     O .rwdata	00000028 alt_dev_null
0801bef8 g     O .bss	00000002 _ZN9EtherCard8delaycntE
0801bef1 g     O .bss	00000004 _ZN9EtherCard5hisipE
08000abc g     F .text	00000088 mousePoll
08003e84 g     F .text	00000038 _Z8getThingh
08001050 g     F .text	00000024 Vbus_power
0801713c g     F .text	00000020 alt_dcache_flush_all
0800e68c g     F .text	00000068 __hi0bits
08008798 g     F .text	00000004 utoa
08015014 g     F .text	00000080 .hidden __fixdfsi
0801a344 g       *ABS*	00000000 __ram_rwdata_end
0801bee1 g     O .bss	00000004 _ZN9EtherCard11broadcastipE
0801a324 g     O .rwdata	00000008 alt_dev_list
08015f8c g     F .text	00000100 write
0800f428 g     F .text	000000a0 _putc_r
080187cc g       *ABS*	00000000 __ram_rodata_end
0801bed1 g     O .bss	00000001 usb_error
080153f8 g     F .text	000000b8 fstat
08013db8 g     F .text	000000f4 .hidden __ledf2
080078cc g     F .text	00000050 _ZN9EtherCard7printIpEPKcPKh
08005860 g     F .text	0000015c _ZN9EtherCard17clientIcmpRequestEPKh
0800ea6c g     F .text	00000140 __pow5mult
0800fee8 g     F .text	0000150c ___vfiprintf_internal_r
0801bf88 g     O .bss	00000004 __nlocale_changed
08007d80 g     F .text	00000058 .hidden __umodsi3
080047e0 g     F .text	00000040 _Z8memcpy_PPvPKvj
08006a94 g     F .text	0000002c _ZN9EtherCard20registerPingCallbackEPFvPhE
0801c558 g       *ABS*	00000000 end
08007e4c g     F .text	00000068 __itoa
08005f24 g     F .text	00000190 _ZN9EtherCard7sendWolEPh
080162c4 g     F .text	000000c0 altera_avalon_jtag_uart_init
080001d0 g     F .exceptions	00000060 alt_instruction_exception_entry
080016a4 g     F .text	0000017c XferDispatchPkt
080180e0 g       *ABS*	00000000 __CTOR_LIST__
0c000000 g       *ABS*	00000000 __alt_stack_pointer
0801bf23 g     O .bss	00000001 _ZN8ENC28J6019promiscuous_enabledE
08016e3c g     F .text	0000007c alt_avalon_timer_sc_init
08015218 g     F .text	00000064 .hidden __clzsi2
08006538 g     F .text	0000006c _ZN9EtherCard12clientTcpReqEPFhhhttEPFthEt
080169a4 g     F .text	00000224 altera_avalon_jtag_uart_write
0800cb6c g     F .text	00000004 __sfp_lock_acquire
0800e130 g     F .text	000000e4 memchr
0800879c g     F .text	000022dc ___vfprintf_internal_r
080013c8 g     F .text	00000034 MaxGpxHandler
0800ccd0 g     F .text	00000310 _free_r
0800d714 g     F .text	00000010 __locale_mb_cur_max
0800474c g     F .text	00000070 _ZN8ENC28J6016disableBroadcastEb
0801bedd g     O .bss	00000004 _ZN9EtherCard7netmaskE
08003208 g     F .text	00000048 _ZN9EtherCard21dhcpAddOptionCallbackEhPFvhPKhhE
08017e20 g     F .text	00000180 __call_exitprocs
080055e0 g     F .text	00000068 _ZN9EtherCard15httpServerReplyEt
08006804 g     F .text	00000064 _ZN9EtherCard9browseUrlEPKcS1_S1_PFvhttE
0801bed9 g     O .bss	00000004 _ZN9EtherCard4myipE
0801bf84 g     O .bss	00000004 __mlocale_changed
0801a310 g     O .rwdata	00000004 __malloc_sbrk_base
08000230 g     F .text	0000003c _start
0801bfb4 g     O .bss	00000004 _alt_tick_rate
08000f14 g     F .text	00000094 MAXbytes_rd
0800ebac g     F .text	00000148 __lshift
08016bc8 g     F .text	000001fc alt_avalon_spi_command
0801bfb8 g     O .bss	00000004 _alt_nticks
08015a90 g     F .text	00000104 read
080160f8 g     F .text	00000068 alt_sys_init
0801c410 g     O .bss	00000048 devtable
08017d08 g     F .text	00000118 __register_exitproc
08000674 g     F .text	00000408 HIDKProbe
08003250 g     F .text	00000038 _ZN9EtherCard21dhcpAddOptionCallbackEPhPFvhPKhhE
0801bfd4 g     O .bss	00000018 msd_ep
0800842c g     F .text	000000d0 strncmp
08006b48 g     F .text	0000011c _ZN9EtherCard6acceptEtt
08004454 g     F .text	0000013c _ZN8ENC28J6013packetReceiveEv
0800e7e0 g     F .text	0000028c __multiply
08016630 g     F .text	00000068 altera_avalon_jtag_uart_close
080019b0 g     F .text	00000098 USB_init
08007dd8 g     F .text	00000028 .hidden __mulsi3
0801c310 g     O .bss	00000100 bigbuf
080187cc g       *ABS*	00000000 __ram_rwdata_start
080180e0 g       *ABS*	00000000 __ram_rodata_start
080084fc g     F .text	000000ec strncpy
0801c2e8 g     O .bss	00000028 __malloc_current_mallinfo
0801bec8 g     O .bss	00000001 last_usb_task_state
0800f0c0 g     F .text	0000014c __d2b
0801bec0 g     O .bss	00000008 dev0ep
08016160 g     F .text	00000060 altera_avalon_jtag_uart_read_fd
08017b5c g     F .text	000000c4 alt_get_fd
08016fe4 g     F .text	00000158 alt_busy_sleep
080020b8 g     F .text	00000038 MSDEventHandler
08011684 g     F .text	00000054 _close_r
0801bf22 g     O .bss	00000001 _ZN8ENC28J6017broadcast_enabledE
08007eb8 g     F .text	0000007c memcmp
08016220 g     F .text	00000050 altera_avalon_jtag_uart_close_fd
0801c558 g       *ABS*	00000000 __alt_stack_base
08016270 g     F .text	00000054 altera_avalon_jtag_uart_ioctl_fd
0801a2d2 g     O .rwdata	00000002 _ZN9EtherCard7hisportE
08006c64 g     F .text	00000770 _ZN9EtherCard10packetLoopEt
08007428  w    F .text	00000040 _ZN12BufferFillerC2EPh
08004590 g     F .text	00000158 _ZN8ENC28J6010packetSendEt
0800ab50 g     F .text	00000154 __swsetup_r
08013284 g     F .text	000009d0 .hidden __divdf3
0800ca2c g     F .text	00000118 __sfp
0800f324 g     F .text	00000078 __copybits
08018cb8 g     O .rwdata	00000408 __malloc_av_
0800cb78 g     F .text	00000004 __sinit_lock_release
0800211c g     F .text	00000038 CDCEventHandler
08013eac g     F .text	0000086c .hidden __muldf3
08002180 g     F .text	00000038 DummyEventHandler
0800fbbc g     F .text	00000054 __sread
08005778 g     F .text	0000002c _ZN9EtherCard17getSequenceNumberEv
08017a54 g     F .text	00000108 alt_find_file
0801c02c g     O .bss	000002bc _ZN8ENC28J606bufferE
08017198 g     F .text	000000a4 alt_dev_llist_insert
08015a0c g     F .text	00000024 __malloc_lock
08015c18 g     F .text	000000b0 sbrk
08006a00 g     F .text	0000004c _ZN9EtherCard7tcpSendEv
0800c770 g     F .text	0000005c _fflush_r
080116d8 g     F .text	000000dc _calloc_r
08008640 g     F .text	00000158 __utoa
080154b0 g     F .text	000001f4 gettimeofday
0801bebc g       *ABS*	00000000 __bss_start
080050fc g     F .text	00000180 _ZN9EtherCard12makeUdpReplyEPKcht
08001074 g     F .text	00000188 MAX_busprobe
0801bebc g     O .bss	00000002 hid_device
0800807c g     F .text	00000128 memset
08007ac0 g     F .text	00000164 main
080057a4 g     F .text	0000004c _ZN9EtherCard18httpServerReplyAckEv
08001290 g     F .text	0000006c MAX3421E_Task
0801bfb0 g     O .bss	00000004 alt_envp
0801bf8c g     O .bss	00000004 __malloc_max_total_mem
080161c0 g     F .text	00000060 altera_avalon_jtag_uart_write_fd
08003a10 g     F .text	0000003c _Z7bitReadhh
0801160c g     F .text	00000018 __swbuf
08002210 g     F .text	00000084 ConvUTF8ToStr
0800fcf0 g     F .text	00000008 __sclose
0c000000 g       *ABS*	00000000 __alt_heap_limit
080118a4 g     F .text	00000014 fclose
0800aecc g     F .text	00001688 _dtoa_r
0800d924 g     F .text	0000080c _malloc_r
08011d8c g     F .text	00000030 __ascii_wctomb
080085e8 g     F .text	00000050 time
0801a330 g     O .rwdata	00000004 alt_errno
080046e8 g     F .text	00000064 _ZN8ENC28J6015enableBroadcastEb
0800d4a8 g     F .text	000000c4 _fwalk
0801bed3 g     O .bss	00000006 _ZN9EtherCard5mymacE
0800f4c8 g     F .text	000000c8 putc
08007c24 g     F .text	00000084 .hidden __divsi3
08001820 g     F .text	00000190 XferInTransfer
0800cbac g     F .text	00000124 _malloc_trim_r
080180e0 g       *ABS*	00000000 __CTOR_END__
080021d8 g     F .text	00000038 GetDevtable
0800fcf8 g     F .text	000000dc strcmp
080180e0 g       *ABS*	00000000 __flash_rodata_start
080180e0 g       *ABS*	00000000 __DTOR_LIST__
0801bf20 g     O .bss	00000002 _ZN8ENC28J6010bufferSizeE
08001630 g     F .text	00000074 XferCtrlND
0801beed g     O .bss	00000004 _ZN9EtherCard5dnsipE
08013c54 g     F .text	00000088 .hidden __nedf2
08000fa8 g     F .text	000000a8 MAX3421E_reset
080160c0 g     F .text	00000038 alt_irq_init
08015b94 g     F .text	00000084 alt_release_fd
08005db8 g     F .text	000000d0 _ZN9EtherCard11udpTransmitEt
08018698 g     O .rodata	00000100 .hidden __clz_tab
0801bf80 g     O .bss	00000004 _PathLocale
08017cbc g     F .text	00000014 atexit
08011624 g     F .text	00000060 _write_r
0800d744 g     F .text	00000018 setlocale
08006270 g     F .text	00000044 _ZN9EtherCard7setGwIpEPKh
0801a308 g     O .rwdata	00000004 _impure_ptr
0801bfa8 g     O .bss	00000004 alt_argc
0800c554 g     F .text	0000021c __sflush_r
0801729c g     F .text	00000060 _do_dtors
0800d730 g     F .text	00000008 __locale_cjk_lang
08006a4c g     F .text	00000048 _ZN9EtherCard8tcpReplyEh
08000d24 g     F .text	00000170 MAXbytes_wr
080079e0 g     F .text	00000040 _ZN9EtherCard6copyIpEPhPKh
08007540 g     F .text	000000d4 _ZN9EtherCard26udpServerPauseListenOnPortEt
08007614 g     F .text	000000d8 _ZN9EtherCard27udpServerResumeListenOnPortEt
08000020 g       .exceptions	00000000 alt_irq_entry
0800ef50 g     F .text	00000064 __ulp
0800cb94 g     F .text	00000018 __fp_unlock_all
0801a31c g     O .rwdata	00000008 alt_fs_list
080047bc g     F .text	00000024 _Z4PSTRPc
080020f0 g     F .text	0000002c CDCProbe
0801bfa0 g     O .bss	00000008 alt_resettime
08000020 g       *ABS*	00000000 __ram_exceptions_start
0800d75c g     F .text	0000000c localeconv
08002294 g     F .text	000000d0 _ZN9EtherCard5beginEtPKhh
080021b8 g     F .text	00000020 GetUsbTaskState
0801a2df g     O .rwdata	00000006 allOnes
0801731c g     F .text	00000050 alt_ic_isr_register
0801a344 g       *ABS*	00000000 _edata
08000c04 g     F .text	00000038 HIDKEventHandler
0801c558 g       *ABS*	00000000 _end
080012fc g     F .text	000000cc MaxIntHandler
080118b8 g     F .text	00000164 __fputwc
08000230 g       *ABS*	00000000 __ram_exceptions_end
08016698 g     F .text	000000f0 altera_avalon_jtag_uart_ioctl
08000c3c g     F .text	00000034 SPI_init
080173f4 g     F .text	0000008c alt_ic_irq_disable
0801bee5 g     O .bss	00000004 _ZN9EtherCard4gwipE
0800fc18 g     F .text	0000007c __swrite
0801a314 g     O .rwdata	00000004 __malloc_trim_threshold
0800d724 g     F .text	0000000c __locale_msgcharset
08017cd0 g     F .text	00000038 exit
0800d56c g     F .text	000000c4 _fwalk_reent
0800ed54 g     F .text	000001fc __mdiff
080073d4 g     F .text	00000030 _ZN9EtherCard20persistTcpConnectionEb
08006188 g     F .text	0000002c _ZN9EtherCard15clientWaitingGwEv
08007ca8 g     F .text	00000074 .hidden __modsi3
0c000000 g       *ABS*	00000000 __alt_data_end
08000020 g     F .exceptions	00000000 alt_exception
0800cb70 g     F .text	00000004 __sfp_lock_release
08000000 g       *ABS*	00000000 __alt_mem_sdram
080059bc g     F .text	00000180 _ZN9EtherCard10ntpRequestEPhh
08000bcc g     F .text	00000038 HIDMEventHandler
080180ac g     F .text	00000034 _exit
08016eb8 g     F .text	0000012c alt_alarm_start
08017fa0 g     F .text	0000010c .hidden __muldi3
0800d768 g     F .text	000001bc __smakebuf_r
08007404  w    F .text	00000024 _ZN8ENC28J609tcpOffsetEv
08008394 g     F .text	00000098 strlen
08017844 g     F .text	0000015c open
08013cdc g     F .text	000000dc .hidden __gedf2
08007e00 g     F .text	0000004c clock
0801bef6 g     O .bss	00000001 _ZN9EtherCard22persist_tcp_connectionE
0801a318 g     O .rwdata	00000004 __wctomb
0800fed0 g     F .text	00000018 __sprint_r
080172fc g     F .text	00000020 alt_icache_flush_all
0801a340 g     O .rwdata	00000004 alt_priority_mask
0801bef5 g     O .bss	00000001 _ZN9EtherCard10using_dhcpE
0801736c g     F .text	00000088 alt_ic_irq_enable
0800aa78 g     F .text	0000001c __vfprintf_internal
0800026c g     F .text	00000408 HIDMProbe
08011dbc g     F .text	0000005c _wctomb_r
08000c70 g     F .text	00000028 SPI_wr
08014718 g     F .text	000008fc .hidden __subdf3
0800e6f4 g     F .text	000000b0 __lo0bits
0801a338 g     O .rwdata	00000008 alt_alarm_list
0801723c g     F .text	00000060 _do_ctors
08005e88 g     F .text	0000009c _ZN9EtherCard7sendUdpEPKchtPKht
0800791c g     F .text	00000084 _ZN9EtherCard7printIpEPKh
08011ccc g     F .text	000000c0 wcrtomb
080152b8 g     F .text	000000d8 close
08003078 g     F .text	00000190 _ZN9EtherCard9dhcpSetupEPKcb
080157f4 g     F .text	00000084 alt_load
080062b4 g     F .text	00000080 _ZN9EtherCard22updateBroadcastAddressEv
08007428  w    F .text	00000040 _ZN12BufferFillerC1EPh
08011a40 g     F .text	00000080 fputwc
0800cb74 g     F .text	00000004 __sinit_lock_acquire
080013fc g     F .text	0000014c XferCtrlReq
0800e440 g     F .text	00000148 __multadd
0800e418 g     F .text	00000028 _Bfree



Disassembly of section .entry:

08000000 <__reset>:
 * Jump to the _start entry point in the .text section if reset code
 * is allowed or if optimizing for RTL simulation.
 */
#if defined(ALT_ALLOW_CODE_AT_RESET) || defined(ALT_SIM_OPTIMIZE)
    /* Jump to the _start entry point in the .text section. */
    movhi r1, %hi(_start)
 8000000:	00420034 	movhi	at,2048
    ori r1, r1, %lo(_start)
 8000004:	08408c14 	ori	at,at,560
    jmp r1
 8000008:	0800683a 	jmp	at
	...

Disassembly of section .exceptions:

08000020 <alt_exception>:

#else /* ALT_EXCEPTION_STACK disabled */
        /* 
         * Reserve space on normal stack for registers about to be pushed.
         */
        addi  sp, sp, -76
 8000020:	deffed04 	addi	sp,sp,-76
         * documentation for details).
         *
         * Leave a gap in the stack frame at 4(sp) for the muldiv handler to
         * store zero into.
         */
        stw   ra,  0(sp)
 8000024:	dfc00015 	stw	ra,0(sp)
        stw   r1,   8(sp)
 8000028:	d8400215 	stw	at,8(sp)
        stw   r2,  12(sp)
 800002c:	d8800315 	stw	r2,12(sp)
        stw   r3,  16(sp)
 8000030:	d8c00415 	stw	r3,16(sp)
        stw   r4,  20(sp)
 8000034:	d9000515 	stw	r4,20(sp)
        stw   r5,  24(sp)
 8000038:	d9400615 	stw	r5,24(sp)
        stw   r6,  28(sp)
 800003c:	d9800715 	stw	r6,28(sp)
        stw   r7,  32(sp)
 8000040:	d9c00815 	stw	r7,32(sp)
        rdctl r5, estatus   /* Read early to avoid usage stall */
 8000044:	000b307a 	rdctl	r5,estatus
        stw   r8,  36(sp)
 8000048:	da000915 	stw	r8,36(sp)
        stw   r9,  40(sp)
 800004c:	da400a15 	stw	r9,40(sp)
        stw   r10, 44(sp)
 8000050:	da800b15 	stw	r10,44(sp)
        stw   r11, 48(sp)
 8000054:	dac00c15 	stw	r11,48(sp)
        stw   r12, 52(sp)
 8000058:	db000d15 	stw	r12,52(sp)
        stw   r13, 56(sp)
 800005c:	db400e15 	stw	r13,56(sp)
        stw   r14, 60(sp)
 8000060:	db800f15 	stw	r14,60(sp)
        stw   r15, 64(sp)
 8000064:	dbc01015 	stw	r15,64(sp)
        /*
         * ea-4 contains the address of the instruction being executed
         * when the exception occured. For interrupt exceptions, we will
         * will be re-issue the isntruction. Store it in 72(sp)
         */
        stw   r5,  68(sp)  /* estatus */
 8000068:	d9401115 	stw	r5,68(sp)
        addi  r15, ea, -4  /* instruction that caused exception */
 800006c:	ebffff04 	addi	r15,ea,-4
        stw   r15,  72(sp)
 8000070:	dbc01215 	stw	r15,72(sp)
#else
        /*
         * Test to see if the exception was a software exception or caused 
         * by an external interrupt, and vector accordingly.
         */
        rdctl r4, ipending
 8000074:	0009313a 	rdctl	r4,ipending
        andi  r2, r5, 1
 8000078:	2880004c 	andi	r2,r5,1
        beq   r2, zero, .Lnot_irq
 800007c:	10000326 	beq	r2,zero,800008c <alt_exception+0x6c>
        beq   r4, zero, .Lnot_irq
 8000080:	20000226 	beq	r4,zero,800008c <alt_exception+0x6c>
        /*
         * Now that all necessary registers have been preserved, call 
         * alt_irq_handler() to process the interrupts.
         */

        call alt_irq_handler
 8000084:	80000fc0 	call	80000fc <alt_irq_handler>

        .section .exceptions.irqreturn, "xa"

        br    .Lexception_exit
 8000088:	00000706 	br	80000a8 <alt_exception+0x88>
         * upon completion, so we write ea (address of instruction *after*
         * the one where the exception occured) into 72(sp). The actual
         * instruction that caused the exception is written in r2, which these
         * handlers will utilize.
         */
        stw ea, 72(sp) /* EA is PC+4 so will skip over instruction causing exception */
 800008c:	df401215 	stw	ea,72(sp)
.Lunknown_16bit:
        addi.n r4, r4, 2 /* Need PC+2 to skip over instruction causing exception */
        stw r4, 72(sp)

#else /* CDX is not Enabled and all instructions are 32bits */
        ldw r2, -4(ea) /* Instruction value that caused exception */
 8000090:	e8bfff17 	ldw	r2,-4(ea)
         * debugger is present) or go into an infinite loop since the
         * handling behavior is undefined; in that case we will not return here.
         */

        /* Load exception-causing address as first argument (r4) */
        addi   r4, ea, -4
 8000094:	e93fff04 	addi	r4,ea,-4

        /* Call the instruction-exception entry */
        call   alt_instruction_exception_entry
 8000098:	80001d00 	call	80001d0 <alt_instruction_exception_entry>
         * instruction
         *
         * Return code was 0: Skip. The instruction after the exception is
         * already stored in 72(sp).
         */
        bne   r2, r0, .Lexception_exit
 800009c:	1000021e 	bne	r2,zero,80000a8 <alt_exception+0x88>

        /*
         * Otherwise, modify 72(sp) to re-issue the instruction that caused the
         * exception.
         */
        addi  r15, ea, -4  /* instruction that caused exception */
 80000a0:	ebffff04 	addi	r15,ea,-4
        stw   r15,  72(sp)
 80000a4:	dbc01215 	stw	r15,72(sp)
        /* 
         * Restore the saved registers, so that all general purpose registers 
         * have been restored to their state at the time the interrupt occured.
         */

        ldw   r5,  68(sp)
 80000a8:	d9401117 	ldw	r5,68(sp)
        ldw   ea,  72(sp)  /* This becomes the PC once eret is executed */
 80000ac:	df401217 	ldw	ea,72(sp)
        ldw   ra,   0(sp)
 80000b0:	dfc00017 	ldw	ra,0(sp)

        wrctl estatus, r5
 80000b4:	2801707a 	wrctl	estatus,r5

        ldw   r1,   8(sp)
 80000b8:	d8400217 	ldw	at,8(sp)
        ldw   r2,  12(sp)
 80000bc:	d8800317 	ldw	r2,12(sp)
        ldw   r3,  16(sp)
 80000c0:	d8c00417 	ldw	r3,16(sp)
        ldw   r4,  20(sp)
 80000c4:	d9000517 	ldw	r4,20(sp)
        ldw   r5,  24(sp)
 80000c8:	d9400617 	ldw	r5,24(sp)
        ldw   r6,  28(sp)
 80000cc:	d9800717 	ldw	r6,28(sp)
        ldw   r7,  32(sp)
 80000d0:	d9c00817 	ldw	r7,32(sp)

#if defined(ALT_EXCEPTION_STACK) && defined(ALT_STACK_CHECK)
        ldw   et, %gprel(alt_exception_old_stack_limit)(gp)
#endif

        ldw   r8,  36(sp)
 80000d4:	da000917 	ldw	r8,36(sp)
        ldw   r9,  40(sp)
 80000d8:	da400a17 	ldw	r9,40(sp)
        ldw   r10, 44(sp)
 80000dc:	da800b17 	ldw	r10,44(sp)
        ldw   r11, 48(sp)
 80000e0:	dac00c17 	ldw	r11,48(sp)
        ldw   r12, 52(sp)
 80000e4:	db000d17 	ldw	r12,52(sp)
        ldw   r13, 56(sp)
 80000e8:	db400e17 	ldw	r13,56(sp)
        ldw   r14, 60(sp)
 80000ec:	db800f17 	ldw	r14,60(sp)
        ldw   r15, 64(sp)
 80000f0:	dbc01017 	ldw	r15,64(sp)
        stw   et, %gprel(alt_stack_limit_value)(gp)
        stw   zero, %gprel(alt_exception_old_stack_limit)(gp)
#endif /* ALT_STACK_CHECK */
        ldw   sp,  76(sp)
#else /* ALT_EXCEPTION_STACK disabled */
        addi  sp, sp, 76
 80000f4:	dec01304 	addi	sp,sp,76

        /*
         * Return to the interrupted instruction.
         */

        eret
 80000f8:	ef80083a 	eret

080000fc <alt_irq_handler>:
 * instruction is present if the macro ALT_CI_INTERRUPT_VECTOR defined.
 */

void alt_irq_handler (void) __attribute__ ((section (".exceptions")));
void alt_irq_handler (void)
{
 80000fc:	defff904 	addi	sp,sp,-28
 8000100:	dfc00615 	stw	ra,24(sp)
 8000104:	df000515 	stw	fp,20(sp)
 8000108:	df000504 	addi	fp,sp,20
  
  /*
   * Notify the operating system that we are at interrupt level.
   */ 
  
  ALT_OS_INT_ENTER();
 800010c:	0001883a 	nop
#ifndef NIOS2_EIC_PRESENT
static ALT_INLINE alt_u32 ALT_ALWAYS_INLINE alt_irq_pending (void)
{
  alt_u32 active;

  NIOS2_READ_IPENDING (active);
 8000110:	0005313a 	rdctl	r2,ipending
 8000114:	e0bffe15 	stw	r2,-8(fp)

  return active;
 8000118:	e0bffe17 	ldw	r2,-8(fp)
   * Consider the case where the high priority interupt is asserted during
   * the interrupt entry sequence for a lower priority interrupt to see why
   * this is the case.
   */

  active = alt_irq_pending ();
 800011c:	e0bffb15 	stw	r2,-20(fp)

  do
  {
    i = 0;
 8000120:	e03ffd15 	stw	zero,-12(fp)
    mask = 1;
 8000124:	00800044 	movi	r2,1
 8000128:	e0bffc15 	stw	r2,-16(fp)
     * called to clear the interrupt condition.
     */

    do
    {
      if (active & mask)
 800012c:	e0fffb17 	ldw	r3,-20(fp)
 8000130:	e0bffc17 	ldw	r2,-16(fp)
 8000134:	1884703a 	and	r2,r3,r2
 8000138:	10001426 	beq	r2,zero,800018c <alt_irq_handler+0x90>
      { 
#ifdef ALT_ENHANCED_INTERRUPT_API_PRESENT
        alt_irq[i].handler(alt_irq[i].context); 
 800013c:	008200b4 	movhi	r2,2050
 8000140:	10b11604 	addi	r2,r2,-15272
 8000144:	e0fffd17 	ldw	r3,-12(fp)
 8000148:	180690fa 	slli	r3,r3,3
 800014c:	10c5883a 	add	r2,r2,r3
 8000150:	10c00017 	ldw	r3,0(r2)
 8000154:	008200b4 	movhi	r2,2050
 8000158:	10b11604 	addi	r2,r2,-15272
 800015c:	e13ffd17 	ldw	r4,-12(fp)
 8000160:	200890fa 	slli	r4,r4,3
 8000164:	1105883a 	add	r2,r2,r4
 8000168:	10800104 	addi	r2,r2,4
 800016c:	10800017 	ldw	r2,0(r2)
 8000170:	1009883a 	mov	r4,r2
 8000174:	183ee83a 	callr	r3
#else
        alt_irq[i].handler(alt_irq[i].context, i); 
#endif
        break;
 8000178:	0001883a 	nop
#ifndef NIOS2_EIC_PRESENT
static ALT_INLINE alt_u32 ALT_ALWAYS_INLINE alt_irq_pending (void)
{
  alt_u32 active;

  NIOS2_READ_IPENDING (active);
 800017c:	0005313a 	rdctl	r2,ipending
 8000180:	e0bfff15 	stw	r2,-4(fp)

  return active;
 8000184:	e0bfff17 	ldw	r2,-4(fp)
 8000188:	00000706 	br	80001a8 <alt_irq_handler+0xac>
      }
      mask <<= 1;
 800018c:	e0bffc17 	ldw	r2,-16(fp)
 8000190:	1085883a 	add	r2,r2,r2
 8000194:	e0bffc15 	stw	r2,-16(fp)
      i++;
 8000198:	e0bffd17 	ldw	r2,-12(fp)
 800019c:	10800044 	addi	r2,r2,1
 80001a0:	e0bffd15 	stw	r2,-12(fp)

    } while (1);
 80001a4:	003fe106 	br	800012c <alt_irq_handler+0x30>

    active = alt_irq_pending ();
 80001a8:	e0bffb15 	stw	r2,-20(fp)
    
  } while (active);
 80001ac:	e0bffb17 	ldw	r2,-20(fp)
 80001b0:	103fdb1e 	bne	r2,zero,8000120 <alt_irq_handler+0x24>

  /*
   * Notify the operating system that interrupt processing is complete.
   */ 

  ALT_OS_INT_EXIT();
 80001b4:	0001883a 	nop
}
 80001b8:	0001883a 	nop
 80001bc:	e037883a 	mov	sp,fp
 80001c0:	dfc00117 	ldw	ra,4(sp)
 80001c4:	df000017 	ldw	fp,0(sp)
 80001c8:	dec00204 	addi	sp,sp,8
 80001cc:	f800283a 	ret

080001d0 <alt_instruction_exception_entry>:
 * that handler if it has been registered. Absent a handler, it will
 * break break or hang as discussed below.
 */
int 
alt_instruction_exception_entry (alt_u32 exception_pc)
{
 80001d0:	defffb04 	addi	sp,sp,-20
 80001d4:	dfc00415 	stw	ra,16(sp)
 80001d8:	df000315 	stw	fp,12(sp)
 80001dc:	df000304 	addi	fp,sp,12
 80001e0:	e13fff15 	stw	r4,-4(fp)
  cause = ( (cause & NIOS2_EXCEPTION_REG_CAUSE_MASK) >>
              NIOS2_EXCEPTION_REG_CAUSE_OFST );

  NIOS2_READ_BADADDR(badaddr);
#else
  cause = NIOS2_EXCEPTION_CAUSE_NOT_PRESENT;
 80001e4:	00bfffc4 	movi	r2,-1
 80001e8:	e0bffd15 	stw	r2,-12(fp)
  badaddr = 0;
 80001ec:	e03ffe15 	stw	zero,-8(fp)
#endif /* NIOS2_HAS_EXTRA_EXCEPTION_INFO */

  if(alt_instruction_exception_handler) {
 80001f0:	d0a73e17 	ldw	r2,-25352(gp)
 80001f4:	10000726 	beq	r2,zero,8000214 <alt_instruction_exception_entry+0x44>
     * Call handler. Its return value indicates whether the exception-causing
     * instruction should be re-issued. The code that called us,
     * alt_eceptions_entry.S, will look at this value and adjust the ea
     * register as necessary
     */
    return alt_instruction_exception_handler(cause, exception_pc, badaddr);
 80001f8:	d0a73e17 	ldw	r2,-25352(gp)
 80001fc:	e0fffd17 	ldw	r3,-12(fp)
 8000200:	e1bffe17 	ldw	r6,-8(fp)
 8000204:	e17fff17 	ldw	r5,-4(fp)
 8000208:	1809883a 	mov	r4,r3
 800020c:	103ee83a 	callr	r2
 8000210:	00000206 	br	800021c <alt_instruction_exception_entry+0x4c>
   *    (a peripheral which negates its interrupt output before its
   *    interrupt handler has been executed will cause spurious interrupts)
   */
  else {
#ifdef NIOS2_HAS_DEBUG_STUB
    NIOS2_BREAK();
 8000214:	003da03a 	break	0
      ;
#endif /* NIOS2_HAS_DEBUG_STUB */
  }

  /* We should not get here. Remove compiler warning. */
  return NIOS2_EXCEPTION_RETURN_REISSUE_INST;
 8000218:	0005883a 	mov	r2,zero
}
 800021c:	e037883a 	mov	sp,fp
 8000220:	dfc00117 	ldw	ra,4(sp)
 8000224:	df000017 	ldw	fp,0(sp)
 8000228:	dec00204 	addi	sp,sp,8
 800022c:	f800283a 	ret

Disassembly of section .text:

08000230 <_start>:

    /*
     * Now that the caches are initialized, set up the stack pointer and global pointer.
     * The values provided by the linker are assumed to be correctly aligned.
     */
    movhi sp, %hi(__alt_stack_pointer)
 8000230:	06c30034 	movhi	sp,3072
    ori sp, sp, %lo(__alt_stack_pointer)
 8000234:	dec00014 	ori	sp,sp,0
    movhi gp, %hi(_gp)
 8000238:	068200b4 	movhi	gp,2050
    ori gp, gp, %lo(_gp)
 800023c:	d688b214 	ori	gp,gp,8904
 */
#ifndef ALT_SIM_OPTIMIZE
    /* Log that the BSS is about to be cleared. */
    ALT_LOG_PUTS(alt_log_msg_bss)

    movhi r2, %hi(__bss_start)
 8000240:	00820074 	movhi	r2,2049
    ori r2, r2, %lo(__bss_start)
 8000244:	10afaf14 	ori	r2,r2,48828

    movhi r3, %hi(__bss_end)
 8000248:	00c20074 	movhi	r3,2049
    ori r3, r3, %lo(__bss_end)
 800024c:	18f15614 	ori	r3,r3,50520

    beq r2, r3, 1f
 8000250:	10c00326 	beq	r2,r3,8000260 <_start+0x30>

0:
    stw zero, (r2)
 8000254:	10000015 	stw	zero,0(r2)
    addi r2, r2, 4
 8000258:	10800104 	addi	r2,r2,4
    bltu r2, r3, 0b
 800025c:	10fffd36 	bltu	r2,r3,8000254 <_start+0x24>
     * section aren't defined until alt_load() has been called).
     */
    mov   et, zero
#endif

    call alt_load
 8000260:	80157f40 	call	80157f4 <alt_load>

    /* Log that alt_main is about to be called. */
    ALT_LOG_PUTS(alt_log_msg_alt_main)

    /* Call the C entry point. It should never return. */
    call alt_main
 8000264:	80159900 	call	8015990 <alt_main>

08000268 <alt_after_alt_main>:

    /* Wait in infinite loop in case alt_main does return. */
alt_after_alt_main:
    br alt_after_alt_main
 8000268:	003fff06 	br	8000268 <alt_after_alt_main>

0800026c <HIDMProbe>:
/* HID Mouse probe. Called from USB state machine.                          */
/* assumes configuration length is less than 256 bytes                      */
/* looks for Class:03, Subclass: 01, Protocol: 02 in interface descriptor   */
/* sets mouse in boot protocol                                              */
/* assumes single configuration and interface configuration 0               */
BOOL HIDMProbe(BYTE addr, DWORD flags) {
 800026c:	defff204 	addi	sp,sp,-56
 8000270:	dfc00d15 	stw	ra,52(sp)
 8000274:	df000c15 	stw	fp,48(sp)
 8000278:	df000c04 	addi	fp,sp,48
 800027c:	2005883a 	mov	r2,r4
 8000280:	e17fff15 	stw	r5,-4(fp)
 8000284:	e0bffe05 	stb	r2,-8(fp)
  BYTE tmpbyte;
  BYTE rcode;
  BYTE confvalue;
  WORD total_length;
  USB_DESCR *data_ptr = (USB_DESCR *)&bigbuf;
 8000288:	008200b4 	movhi	r2,2050
 800028c:	10b0c404 	addi	r2,r2,-15600
 8000290:	e0bffa15 	stw	r2,-24(fp)
  BYTE *byte_ptr = bigbuf;
 8000294:	008200b4 	movhi	r2,2050
 8000298:	10b0c404 	addi	r2,r2,-15600
 800029c:	e0bffb15 	stw	r2,-20(fp)
  rcode = XferGetConfDescr(addr, 0, CONF_DESCR_LEN, 0,
 80002a0:	e0fffe03 	ldbu	r3,-8(fp)
 80002a4:	008200b4 	movhi	r2,2050
 80002a8:	10b0c404 	addi	r2,r2,-15600
 80002ac:	d8800415 	stw	r2,16(sp)
 80002b0:	00800244 	movi	r2,9
 80002b4:	d8800315 	stw	r2,12(sp)
 80002b8:	d8000215 	stw	zero,8(sp)
 80002bc:	00800084 	movi	r2,2
 80002c0:	d8800115 	stw	r2,4(sp)
 80002c4:	d8000015 	stw	zero,0(sp)
 80002c8:	01c00184 	movi	r7,6
 80002cc:	01802004 	movi	r6,128
 80002d0:	000b883a 	mov	r5,zero
 80002d4:	1809883a 	mov	r4,r3
 80002d8:	80013fc0 	call	80013fc <XferCtrlReq>
 80002dc:	e0bffc05 	stb	r2,-16(fp)
                           bigbuf); // get configuration descriptor
  if (rcode) {                      // error handling
 80002e0:	e0bffc03 	ldbu	r2,-16(fp)
 80002e4:	10000226 	beq	r2,zero,80002f0 <HIDMProbe+0x84>
    // printf("unable to get configuration descriptor");
    return (FALSE);
 80002e8:	0005883a 	mov	r2,zero
 80002ec:	0000dc06 	br	8000660 <HIDMProbe+0x3f4>
  }
  if (data_ptr->descr.config.wTotalLength > 256) {
 80002f0:	e0bffa17 	ldw	r2,-24(fp)
 80002f4:	1080008b 	ldhu	r2,2(r2)
 80002f8:	10bfffcc 	andi	r2,r2,65535
 80002fc:	10804070 	cmpltui	r2,r2,257
 8000300:	1000031e 	bne	r2,zero,8000310 <HIDMProbe+0xa4>
    total_length = 256;
 8000304:	00804004 	movi	r2,256
 8000308:	e0bff90d 	sth	r2,-28(fp)
 800030c:	00000306 	br	800031c <HIDMProbe+0xb0>
  } else {
    total_length = data_ptr->descr.config.wTotalLength;
 8000310:	e0bffa17 	ldw	r2,-24(fp)
 8000314:	1080008b 	ldhu	r2,2(r2)
 8000318:	e0bff90d 	sth	r2,-28(fp)
  }
  rcode = XferGetConfDescr(addr, 0, total_length, 0,
 800031c:	e13ffe03 	ldbu	r4,-8(fp)
 8000320:	e0fff90b 	ldhu	r3,-28(fp)
 8000324:	008200b4 	movhi	r2,2050
 8000328:	10b0c404 	addi	r2,r2,-15600
 800032c:	d8800415 	stw	r2,16(sp)
 8000330:	d8c00315 	stw	r3,12(sp)
 8000334:	d8000215 	stw	zero,8(sp)
 8000338:	00800084 	movi	r2,2
 800033c:	d8800115 	stw	r2,4(sp)
 8000340:	d8000015 	stw	zero,0(sp)
 8000344:	01c00184 	movi	r7,6
 8000348:	01802004 	movi	r6,128
 800034c:	000b883a 	mov	r5,zero
 8000350:	80013fc0 	call	80013fc <XferCtrlReq>
 8000354:	e0bffc05 	stb	r2,-16(fp)
                           bigbuf); // get the whole configuration
  if (rcode) {                      // error handling
 8000358:	e0bffc03 	ldbu	r2,-16(fp)
 800035c:	10000226 	beq	r2,zero,8000368 <HIDMProbe+0xfc>
    // printf("unable to get configuration");
    return (FALSE);
 8000360:	0005883a 	mov	r2,zero
 8000364:	0000be06 	br	8000660 <HIDMProbe+0x3f4>
  }
  confvalue = data_ptr->descr.config.bConfigurationValue;
 8000368:	e0bffa17 	ldw	r2,-24(fp)
 800036c:	10800143 	ldbu	r2,5(r2)
 8000370:	e0bffc45 	stb	r2,-15(fp)
  // printf("checking configuration value (length: %d): ",
  //		data_ptr->descr.config.wTotalLength);
  // for (int i = 0; i < data_ptr->descr.config.wTotalLength; i++) {
  // printf("%x ", (unsigned char) (bigbuf[i] & 0xff));
  //}
  while (byte_ptr < bigbuf + total_length) {
 8000374:	0000b306 	br	8000644 <HIDMProbe+0x3d8>
    if (data_ptr->descr.config.bDescriptorType != USB_DESCRIPTOR_INTERFACE) {
 8000378:	e0bffa17 	ldw	r2,-24(fp)
 800037c:	10800043 	ldbu	r2,1(r2)
 8000380:	10803fcc 	andi	r2,r2,255
 8000384:	10800120 	cmpeqi	r2,r2,4
 8000388:	1000091e 	bne	r2,zero,80003b0 <HIDMProbe+0x144>
      byte_ptr = byte_ptr + data_ptr->descr.config.bLength;
 800038c:	e0bffa17 	ldw	r2,-24(fp)
 8000390:	10800003 	ldbu	r2,0(r2)
 8000394:	10803fcc 	andi	r2,r2,255
 8000398:	e0fffb17 	ldw	r3,-20(fp)
 800039c:	1885883a 	add	r2,r3,r2
 80003a0:	e0bffb15 	stw	r2,-20(fp)
      data_ptr = (USB_DESCR *)byte_ptr;
 80003a4:	e0bffb17 	ldw	r2,-20(fp)
 80003a8:	e0bffa15 	stw	r2,-24(fp)
 80003ac:	0000a506 	br	8000644 <HIDMProbe+0x3d8>
    } // if( data_ptr->descr.config.bDescriptorType != USB_DESCRIPTOR_INTERFACE
    else {
      // printf("starting interface parsing at byte location %d\n",
      //		data_ptr->descr.config.bLength);
      BYTE class = data_ptr->descr.interface.bInterfaceClass;
 80003b0:	e0bffa17 	ldw	r2,-24(fp)
 80003b4:	10800143 	ldbu	r2,5(r2)
 80003b8:	e0bffc85 	stb	r2,-14(fp)
      BYTE subclass = data_ptr->descr.interface.bInterfaceSubClass;
 80003bc:	e0bffa17 	ldw	r2,-24(fp)
 80003c0:	10800183 	ldbu	r2,6(r2)
 80003c4:	e0bffcc5 	stb	r2,-13(fp)
      BYTE protocol = data_ptr->descr.interface.bInterfaceProtocol;
 80003c8:	e0bffa17 	ldw	r2,-24(fp)
 80003cc:	108001c3 	ldbu	r2,7(r2)
 80003d0:	e0bffd05 	stb	r2,-12(fp)
      // printf("class %x, subclass %x, protocol %x,\n", class, subclass,
      //		protocol);
      // interface descriptor
      if (class == HID_INTF && subclass == BOOT_INTF_SUBCLASS &&
 80003d4:	e0bffc83 	ldbu	r2,-14(fp)
 80003d8:	108000d8 	cmpnei	r2,r2,3
 80003dc:	1000971e 	bne	r2,zero,800063c <HIDMProbe+0x3d0>
 80003e0:	e0bffcc3 	ldbu	r2,-13(fp)
 80003e4:	10800058 	cmpnei	r2,r2,1
 80003e8:	1000941e 	bne	r2,zero,800063c <HIDMProbe+0x3d0>
 80003ec:	e0bffd03 	ldbu	r2,-12(fp)
 80003f0:	10800098 	cmpnei	r2,r2,2
 80003f4:	1000911e 	bne	r2,zero,800063c <HIDMProbe+0x3d0>
          protocol == HID_PROTOCOL_MOUSE) {
        // detected a mouse
        devtable[addr].devclass = HID_M; // device class
 80003f8:	e0fffe03 	ldbu	r3,-8(fp)
 80003fc:	008200b4 	movhi	r2,2050
 8000400:	10b10404 	addi	r2,r2,-15344
 8000404:	180690fa 	slli	r3,r3,3
 8000408:	10c5883a 	add	r2,r2,r3
 800040c:	10800104 	addi	r2,r2,4
 8000410:	00c00084 	movi	r3,2
 8000414:	10c00005 	stb	r3,0(r2)
        tmpbyte = devtable[addr].epinfo->MaxPktSize;
 8000418:	e0fffe03 	ldbu	r3,-8(fp)
 800041c:	008200b4 	movhi	r2,2050
 8000420:	10b10404 	addi	r2,r2,-15344
 8000424:	180690fa 	slli	r3,r3,3
 8000428:	10c5883a 	add	r2,r2,r3
 800042c:	10800017 	ldw	r2,0(r2)
 8000430:	1080008b 	ldhu	r2,2(r2)
 8000434:	e0bffd45 	stb	r2,-11(fp)
        HID_init();                     // initialize data structures
 8000438:	8000a7c0 	call	8000a7c <HID_init>
        devtable[addr].epinfo = hid_ep; // switch endpoint information structure
 800043c:	e0fffe03 	ldbu	r3,-8(fp)
 8000440:	008200b4 	movhi	r2,2050
 8000444:	10b10404 	addi	r2,r2,-15344
 8000448:	180690fa 	slli	r3,r3,3
 800044c:	10c7883a 	add	r3,r2,r3
 8000450:	008200b4 	movhi	r2,2050
 8000454:	10aff104 	addi	r2,r2,-16444
 8000458:	18800015 	stw	r2,0(r3)
        devtable[addr].epinfo[0].MaxPktSize = tmpbyte;
 800045c:	e0fffe03 	ldbu	r3,-8(fp)
 8000460:	008200b4 	movhi	r2,2050
 8000464:	10b10404 	addi	r2,r2,-15344
 8000468:	180690fa 	slli	r3,r3,3
 800046c:	10c5883a 	add	r2,r2,r3
 8000470:	10800017 	ldw	r2,0(r2)
 8000474:	e0fffd43 	ldbu	r3,-11(fp)
 8000478:	10c0008d 	sth	r3,2(r2)
        hid_device.interface = data_ptr->descr.interface.bInterfaceNumber;
 800047c:	e0bffa17 	ldw	r2,-24(fp)
 8000480:	10800083 	ldbu	r2,2(r2)
 8000484:	d0a6fd45 	stb	r2,-25611(gp)
        hid_device.addr = addr;
 8000488:	e0bffe03 	ldbu	r2,-8(fp)
 800048c:	d0a6fd05 	stb	r2,-25612(gp)
        byte_ptr = byte_ptr + data_ptr->descr.config.bLength;
 8000490:	e0bffa17 	ldw	r2,-24(fp)
 8000494:	10800003 	ldbu	r2,0(r2)
 8000498:	10803fcc 	andi	r2,r2,255
 800049c:	e0fffb17 	ldw	r3,-20(fp)
 80004a0:	1885883a 	add	r2,r3,r2
 80004a4:	e0bffb15 	stw	r2,-20(fp)
        data_ptr = (USB_DESCR *)byte_ptr;
 80004a8:	e0bffb17 	ldw	r2,-20(fp)
 80004ac:	e0bffa15 	stw	r2,-24(fp)
        while (byte_ptr < bigbuf + total_length) {
 80004b0:	00005b06 	br	8000620 <HIDMProbe+0x3b4>
          if (data_ptr->descr.config.bDescriptorType !=
 80004b4:	e0bffa17 	ldw	r2,-24(fp)
 80004b8:	10800043 	ldbu	r2,1(r2)
 80004bc:	10803fcc 	andi	r2,r2,255
 80004c0:	10800160 	cmpeqi	r2,r2,5
 80004c4:	1000091e 	bne	r2,zero,80004ec <HIDMProbe+0x280>
              USB_DESCRIPTOR_ENDPOINT) { // skip to endpoint descriptor
            byte_ptr = byte_ptr + data_ptr->descr.config.bLength;
 80004c8:	e0bffa17 	ldw	r2,-24(fp)
 80004cc:	10800003 	ldbu	r2,0(r2)
 80004d0:	10803fcc 	andi	r2,r2,255
 80004d4:	e0fffb17 	ldw	r3,-20(fp)
 80004d8:	1885883a 	add	r2,r3,r2
 80004dc:	e0bffb15 	stw	r2,-20(fp)
            data_ptr = (USB_DESCR *)byte_ptr;
 80004e0:	e0bffb17 	ldw	r2,-20(fp)
 80004e4:	e0bffa15 	stw	r2,-24(fp)
 80004e8:	00004d06 	br	8000620 <HIDMProbe+0x3b4>
          } else {
            /* fill endpoint information structure */
            devtable[addr].epinfo[1].epAddr =
 80004ec:	e0fffe03 	ldbu	r3,-8(fp)
 80004f0:	008200b4 	movhi	r2,2050
 80004f4:	10b10404 	addi	r2,r2,-15344
 80004f8:	180690fa 	slli	r3,r3,3
 80004fc:	10c5883a 	add	r2,r2,r3
 8000500:	10800017 	ldw	r2,0(r2)
 8000504:	10800204 	addi	r2,r2,8
                data_ptr->descr.endpoint.bEndpointAddress;
 8000508:	e0fffa17 	ldw	r3,-24(fp)
 800050c:	18c00083 	ldbu	r3,2(r3)
              USB_DESCRIPTOR_ENDPOINT) { // skip to endpoint descriptor
            byte_ptr = byte_ptr + data_ptr->descr.config.bLength;
            data_ptr = (USB_DESCR *)byte_ptr;
          } else {
            /* fill endpoint information structure */
            devtable[addr].epinfo[1].epAddr =
 8000510:	10c00005 	stb	r3,0(r2)
                data_ptr->descr.endpoint.bEndpointAddress;
            devtable[addr].epinfo[1].Attr =
 8000514:	e0fffe03 	ldbu	r3,-8(fp)
 8000518:	008200b4 	movhi	r2,2050
 800051c:	10b10404 	addi	r2,r2,-15344
 8000520:	180690fa 	slli	r3,r3,3
 8000524:	10c5883a 	add	r2,r2,r3
 8000528:	10800017 	ldw	r2,0(r2)
 800052c:	10800204 	addi	r2,r2,8
                data_ptr->descr.endpoint.bmAttributes;
 8000530:	e0fffa17 	ldw	r3,-24(fp)
 8000534:	18c000c3 	ldbu	r3,3(r3)
            data_ptr = (USB_DESCR *)byte_ptr;
          } else {
            /* fill endpoint information structure */
            devtable[addr].epinfo[1].epAddr =
                data_ptr->descr.endpoint.bEndpointAddress;
            devtable[addr].epinfo[1].Attr =
 8000538:	10c00045 	stb	r3,1(r2)
                data_ptr->descr.endpoint.bmAttributes;
            devtable[addr].epinfo[1].MaxPktSize =
 800053c:	e0fffe03 	ldbu	r3,-8(fp)
 8000540:	008200b4 	movhi	r2,2050
 8000544:	10b10404 	addi	r2,r2,-15344
 8000548:	180690fa 	slli	r3,r3,3
 800054c:	10c5883a 	add	r2,r2,r3
 8000550:	10800017 	ldw	r2,0(r2)
 8000554:	10800204 	addi	r2,r2,8
                data_ptr->descr.endpoint.wMaxPacketSize;
 8000558:	e0fffa17 	ldw	r3,-24(fp)
 800055c:	18c0010b 	ldhu	r3,4(r3)
            /* fill endpoint information structure */
            devtable[addr].epinfo[1].epAddr =
                data_ptr->descr.endpoint.bEndpointAddress;
            devtable[addr].epinfo[1].Attr =
                data_ptr->descr.endpoint.bmAttributes;
            devtable[addr].epinfo[1].MaxPktSize =
 8000560:	10c0008d 	sth	r3,2(r2)
                data_ptr->descr.endpoint.wMaxPacketSize;
            devtable[addr].epinfo[1].Interval =
 8000564:	e0fffe03 	ldbu	r3,-8(fp)
 8000568:	008200b4 	movhi	r2,2050
 800056c:	10b10404 	addi	r2,r2,-15344
 8000570:	180690fa 	slli	r3,r3,3
 8000574:	10c5883a 	add	r2,r2,r3
 8000578:	10800017 	ldw	r2,0(r2)
 800057c:	10800204 	addi	r2,r2,8
                data_ptr->descr.endpoint.bInterval;
 8000580:	e0fffa17 	ldw	r3,-24(fp)
 8000584:	18c00183 	ldbu	r3,6(r3)
                data_ptr->descr.endpoint.bEndpointAddress;
            devtable[addr].epinfo[1].Attr =
                data_ptr->descr.endpoint.bmAttributes;
            devtable[addr].epinfo[1].MaxPktSize =
                data_ptr->descr.endpoint.wMaxPacketSize;
            devtable[addr].epinfo[1].Interval =
 8000588:	10c00105 	stb	r3,4(r2)
                data_ptr->descr.endpoint.bInterval;
            // devtable[ addr ].epinfo[ 1 ].rcvToggle = bmRCVTOG0;
            /* configure device */
            rcode = XferSetConf(addr, 0, confvalue); // set configuration
 800058c:	e0fffe03 	ldbu	r3,-8(fp)
 8000590:	e0bffc43 	ldbu	r2,-15(fp)
 8000594:	d8000415 	stw	zero,16(sp)
 8000598:	d8000315 	stw	zero,12(sp)
 800059c:	d8000215 	stw	zero,8(sp)
 80005a0:	d8000115 	stw	zero,4(sp)
 80005a4:	d8800015 	stw	r2,0(sp)
 80005a8:	01c00244 	movi	r7,9
 80005ac:	000d883a 	mov	r6,zero
 80005b0:	000b883a 	mov	r5,zero
 80005b4:	1809883a 	mov	r4,r3
 80005b8:	80013fc0 	call	80013fc <XferCtrlReq>
 80005bc:	e0bffc05 	stb	r2,-16(fp)
            if (rcode) {                             // error handling
 80005c0:	e0bffc03 	ldbu	r2,-16(fp)
 80005c4:	10000226 	beq	r2,zero,80005d0 <HIDMProbe+0x364>
              return (FALSE);
 80005c8:	0005883a 	mov	r2,zero
 80005cc:	00002406 	br	8000660 <HIDMProbe+0x3f4>
            }
            rcode = XferSetProto(addr, 0, hid_device.interface, BOOT_PROTOCOL);
 80005d0:	e0fffe03 	ldbu	r3,-8(fp)
 80005d4:	d0a6fd43 	ldbu	r2,-25611(gp)
 80005d8:	10803fcc 	andi	r2,r2,255
 80005dc:	d8000415 	stw	zero,16(sp)
 80005e0:	d8000315 	stw	zero,12(sp)
 80005e4:	d8800215 	stw	r2,8(sp)
 80005e8:	d8000115 	stw	zero,4(sp)
 80005ec:	d8000015 	stw	zero,0(sp)
 80005f0:	01c002c4 	movi	r7,11
 80005f4:	01800844 	movi	r6,33
 80005f8:	000b883a 	mov	r5,zero
 80005fc:	1809883a 	mov	r4,r3
 8000600:	80013fc0 	call	80013fc <XferCtrlReq>
 8000604:	e0bffc05 	stb	r2,-16(fp)
            if (rcode) { // error handling
 8000608:	e0bffc03 	ldbu	r2,-16(fp)
 800060c:	10000226 	beq	r2,zero,8000618 <HIDMProbe+0x3ac>
              return (FALSE);
 8000610:	0005883a 	mov	r2,zero
 8000614:	00001206 	br	8000660 <HIDMProbe+0x3f4>
            } else {
              return (TRUE);
 8000618:	00800044 	movi	r2,1
 800061c:	00001006 	br	8000660 <HIDMProbe+0x3f4>
        devtable[addr].epinfo[0].MaxPktSize = tmpbyte;
        hid_device.interface = data_ptr->descr.interface.bInterfaceNumber;
        hid_device.addr = addr;
        byte_ptr = byte_ptr + data_ptr->descr.config.bLength;
        data_ptr = (USB_DESCR *)byte_ptr;
        while (byte_ptr < bigbuf + total_length) {
 8000620:	e0fff90b 	ldhu	r3,-28(fp)
 8000624:	008200b4 	movhi	r2,2050
 8000628:	10b0c404 	addi	r2,r2,-15600
 800062c:	1885883a 	add	r2,r3,r2
 8000630:	e0fffb17 	ldw	r3,-20(fp)
 8000634:	18bf9f36 	bltu	r3,r2,80004b4 <HIDMProbe+0x248>
      BYTE subclass = data_ptr->descr.interface.bInterfaceSubClass;
      BYTE protocol = data_ptr->descr.interface.bInterfaceProtocol;
      // printf("class %x, subclass %x, protocol %x,\n", class, subclass,
      //		protocol);
      // interface descriptor
      if (class == HID_INTF && subclass == BOOT_INTF_SUBCLASS &&
 8000638:	00000206 	br	8000644 <HIDMProbe+0x3d8>
            }
          }
        }    // while( byte_ptr....
      }      // if (Class matches
      else { // if class don't match; die on first interface. Not really correct
        return (FALSE);
 800063c:	0005883a 	mov	r2,zero
 8000640:	00000706 	br	8000660 <HIDMProbe+0x3f4>
  // printf("checking configuration value (length: %d): ",
  //		data_ptr->descr.config.wTotalLength);
  // for (int i = 0; i < data_ptr->descr.config.wTotalLength; i++) {
  // printf("%x ", (unsigned char) (bigbuf[i] & 0xff));
  //}
  while (byte_ptr < bigbuf + total_length) {
 8000644:	e0fff90b 	ldhu	r3,-28(fp)
 8000648:	008200b4 	movhi	r2,2050
 800064c:	10b0c404 	addi	r2,r2,-15600
 8000650:	1885883a 	add	r2,r3,r2
 8000654:	e0fffb17 	ldw	r3,-20(fp)
 8000658:	18bf4736 	bltu	r3,r2,8000378 <HIDMProbe+0x10c>
      else { // if class don't match; die on first interface. Not really correct
        return (FALSE);
      }
    } // else if( data_ptr->
  }   // while( byte_ptr < &buf + total_length
  return (FALSE);
 800065c:	0005883a 	mov	r2,zero
}
 8000660:	e037883a 	mov	sp,fp
 8000664:	dfc00117 	ldw	ra,4(sp)
 8000668:	df000017 	ldw	fp,0(sp)
 800066c:	dec00204 	addi	sp,sp,8
 8000670:	f800283a 	ret

08000674 <HIDKProbe>:
/* assumes configuration length is less than 256 bytes */
/* looks for Class:03, Subclass: 01, Protocol: 01 in interface descriptor */
/* sets keyboard in boot protocol */
/* assumes single configuration, single endpoint, and interface configuration 0
 */
BOOL HIDKProbe(BYTE addr, DWORD flags) {
 8000674:	defff204 	addi	sp,sp,-56
 8000678:	dfc00d15 	stw	ra,52(sp)
 800067c:	df000c15 	stw	fp,48(sp)
 8000680:	df000c04 	addi	fp,sp,48
 8000684:	2005883a 	mov	r2,r4
 8000688:	e17fff15 	stw	r5,-4(fp)
 800068c:	e0bffe05 	stb	r2,-8(fp)
  BYTE tmpbyte;
  BYTE rcode;
  BYTE confvalue;
  WORD total_length;
  USB_DESCR *data_ptr = (USB_DESCR *)&bigbuf;
 8000690:	008200b4 	movhi	r2,2050
 8000694:	10b0c404 	addi	r2,r2,-15600
 8000698:	e0bffa15 	stw	r2,-24(fp)
  BYTE *byte_ptr = bigbuf;
 800069c:	008200b4 	movhi	r2,2050
 80006a0:	10b0c404 	addi	r2,r2,-15600
 80006a4:	e0bffb15 	stw	r2,-20(fp)
  rcode = XferGetConfDescr(addr, 0, CONF_DESCR_LEN, 0,
 80006a8:	e0fffe03 	ldbu	r3,-8(fp)
 80006ac:	008200b4 	movhi	r2,2050
 80006b0:	10b0c404 	addi	r2,r2,-15600
 80006b4:	d8800415 	stw	r2,16(sp)
 80006b8:	00800244 	movi	r2,9
 80006bc:	d8800315 	stw	r2,12(sp)
 80006c0:	d8000215 	stw	zero,8(sp)
 80006c4:	00800084 	movi	r2,2
 80006c8:	d8800115 	stw	r2,4(sp)
 80006cc:	d8000015 	stw	zero,0(sp)
 80006d0:	01c00184 	movi	r7,6
 80006d4:	01802004 	movi	r6,128
 80006d8:	000b883a 	mov	r5,zero
 80006dc:	1809883a 	mov	r4,r3
 80006e0:	80013fc0 	call	80013fc <XferCtrlReq>
 80006e4:	e0bffc05 	stb	r2,-16(fp)
                           bigbuf); // get configuration descriptor
  if (rcode) {                      // error handling
 80006e8:	e0bffc03 	ldbu	r2,-16(fp)
 80006ec:	10000226 	beq	r2,zero,80006f8 <HIDKProbe+0x84>
    return (FALSE);
 80006f0:	0005883a 	mov	r2,zero
 80006f4:	0000dc06 	br	8000a68 <HIDKProbe+0x3f4>
  }
  if (data_ptr->descr.config.wTotalLength > 256) {
 80006f8:	e0bffa17 	ldw	r2,-24(fp)
 80006fc:	1080008b 	ldhu	r2,2(r2)
 8000700:	10bfffcc 	andi	r2,r2,65535
 8000704:	10804070 	cmpltui	r2,r2,257
 8000708:	1000031e 	bne	r2,zero,8000718 <HIDKProbe+0xa4>
    total_length = 256;
 800070c:	00804004 	movi	r2,256
 8000710:	e0bff90d 	sth	r2,-28(fp)
 8000714:	00000306 	br	8000724 <HIDKProbe+0xb0>
  } else {
    total_length = data_ptr->descr.config.wTotalLength;
 8000718:	e0bffa17 	ldw	r2,-24(fp)
 800071c:	1080008b 	ldhu	r2,2(r2)
 8000720:	e0bff90d 	sth	r2,-28(fp)
  }
  rcode = XferGetConfDescr(addr, 0, total_length, 0,
 8000724:	e13ffe03 	ldbu	r4,-8(fp)
 8000728:	e0fff90b 	ldhu	r3,-28(fp)
 800072c:	008200b4 	movhi	r2,2050
 8000730:	10b0c404 	addi	r2,r2,-15600
 8000734:	d8800415 	stw	r2,16(sp)
 8000738:	d8c00315 	stw	r3,12(sp)
 800073c:	d8000215 	stw	zero,8(sp)
 8000740:	00800084 	movi	r2,2
 8000744:	d8800115 	stw	r2,4(sp)
 8000748:	d8000015 	stw	zero,0(sp)
 800074c:	01c00184 	movi	r7,6
 8000750:	01802004 	movi	r6,128
 8000754:	000b883a 	mov	r5,zero
 8000758:	80013fc0 	call	80013fc <XferCtrlReq>
 800075c:	e0bffc05 	stb	r2,-16(fp)
                           bigbuf); // get the whole configuration
  if (rcode) {                      // error handling
 8000760:	e0bffc03 	ldbu	r2,-16(fp)
 8000764:	10000226 	beq	r2,zero,8000770 <HIDKProbe+0xfc>
    return (FALSE);
 8000768:	0005883a 	mov	r2,zero
 800076c:	0000be06 	br	8000a68 <HIDKProbe+0x3f4>
  }
  confvalue = data_ptr->descr.config
 8000770:	e0bffa17 	ldw	r2,-24(fp)
 8000774:	10800143 	ldbu	r2,5(r2)
 8000778:	e0bffc45 	stb	r2,-15(fp)
                  .bConfigurationValue; // save configuration value to use later
  while (byte_ptr < bigbuf + total_length) { // parse configuration
 800077c:	0000b306 	br	8000a4c <HIDKProbe+0x3d8>
    if (data_ptr->descr.config.bDescriptorType !=
 8000780:	e0bffa17 	ldw	r2,-24(fp)
 8000784:	10800043 	ldbu	r2,1(r2)
 8000788:	10803fcc 	andi	r2,r2,255
 800078c:	10800120 	cmpeqi	r2,r2,4
 8000790:	1000091e 	bne	r2,zero,80007b8 <HIDKProbe+0x144>
        USB_DESCRIPTOR_INTERFACE) { // skip to the next descriptor
      byte_ptr = byte_ptr + data_ptr->descr.config.bLength;
 8000794:	e0bffa17 	ldw	r2,-24(fp)
 8000798:	10800003 	ldbu	r2,0(r2)
 800079c:	10803fcc 	andi	r2,r2,255
 80007a0:	e0fffb17 	ldw	r3,-20(fp)
 80007a4:	1885883a 	add	r2,r3,r2
 80007a8:	e0bffb15 	stw	r2,-20(fp)
      data_ptr = (USB_DESCR *)byte_ptr;
 80007ac:	e0bffb17 	ldw	r2,-20(fp)
 80007b0:	e0bffa15 	stw	r2,-24(fp)
 80007b4:	0000a506 	br	8000a4c <HIDKProbe+0x3d8>
    } // if( data_ptr->descr.config.bDescriptorType != USB_DESCRIPTOR_INTERFACE
    else {
      // printf("starting interface parsing at byte location %d\n",
      //		data_ptr->descr.config.bLength);
      BYTE class = data_ptr->descr.interface.bInterfaceClass;
 80007b8:	e0bffa17 	ldw	r2,-24(fp)
 80007bc:	10800143 	ldbu	r2,5(r2)
 80007c0:	e0bffc85 	stb	r2,-14(fp)
      BYTE subclass = data_ptr->descr.interface.bInterfaceSubClass;
 80007c4:	e0bffa17 	ldw	r2,-24(fp)
 80007c8:	10800183 	ldbu	r2,6(r2)
 80007cc:	e0bffcc5 	stb	r2,-13(fp)
      BYTE protocol = data_ptr->descr.interface.bInterfaceProtocol;
 80007d0:	e0bffa17 	ldw	r2,-24(fp)
 80007d4:	108001c3 	ldbu	r2,7(r2)
 80007d8:	e0bffd05 	stb	r2,-12(fp)
      // printf("class %x, subclass %x, protocol %x,\n", class, subclass,
      //		protocol);
      // interface descriptor
      if (class == HID_INTF && subclass == BOOT_INTF_SUBCLASS &&
 80007dc:	e0bffc83 	ldbu	r2,-14(fp)
 80007e0:	108000d8 	cmpnei	r2,r2,3
 80007e4:	1000971e 	bne	r2,zero,8000a44 <HIDKProbe+0x3d0>
 80007e8:	e0bffcc3 	ldbu	r2,-13(fp)
 80007ec:	10800058 	cmpnei	r2,r2,1
 80007f0:	1000941e 	bne	r2,zero,8000a44 <HIDKProbe+0x3d0>
 80007f4:	e0bffd03 	ldbu	r2,-12(fp)
 80007f8:	10800058 	cmpnei	r2,r2,1
 80007fc:	1000911e 	bne	r2,zero,8000a44 <HIDKProbe+0x3d0>
          protocol == HID_PROTOCOL_KEYBOARD) {
        // detected a keyboard
        devtable[addr].devclass = HID_K;             // fill device class
 8000800:	e0fffe03 	ldbu	r3,-8(fp)
 8000804:	008200b4 	movhi	r2,2050
 8000808:	10b10404 	addi	r2,r2,-15344
 800080c:	180690fa 	slli	r3,r3,3
 8000810:	10c5883a 	add	r2,r2,r3
 8000814:	10800104 	addi	r2,r2,4
 8000818:	00c00044 	movi	r3,1
 800081c:	10c00005 	stb	r3,0(r2)
        tmpbyte = devtable[addr].epinfo->MaxPktSize; // save max.packet size
 8000820:	e0fffe03 	ldbu	r3,-8(fp)
 8000824:	008200b4 	movhi	r2,2050
 8000828:	10b10404 	addi	r2,r2,-15344
 800082c:	180690fa 	slli	r3,r3,3
 8000830:	10c5883a 	add	r2,r2,r3
 8000834:	10800017 	ldw	r2,0(r2)
 8000838:	1080008b 	ldhu	r2,2(r2)
 800083c:	e0bffd45 	stb	r2,-11(fp)
        HID_init();                     // initialize data structures
 8000840:	8000a7c0 	call	8000a7c <HID_init>
        devtable[addr].epinfo = hid_ep; // switch endpoint information structure
 8000844:	e0fffe03 	ldbu	r3,-8(fp)
 8000848:	008200b4 	movhi	r2,2050
 800084c:	10b10404 	addi	r2,r2,-15344
 8000850:	180690fa 	slli	r3,r3,3
 8000854:	10c7883a 	add	r3,r2,r3
 8000858:	008200b4 	movhi	r2,2050
 800085c:	10aff104 	addi	r2,r2,-16444
 8000860:	18800015 	stw	r2,0(r3)
        devtable[addr].epinfo[0].MaxPktSize = tmpbyte; // fill in max.packet
 8000864:	e0fffe03 	ldbu	r3,-8(fp)
 8000868:	008200b4 	movhi	r2,2050
 800086c:	10b10404 	addi	r2,r2,-15344
 8000870:	180690fa 	slli	r3,r3,3
 8000874:	10c5883a 	add	r2,r2,r3
 8000878:	10800017 	ldw	r2,0(r2)
 800087c:	e0fffd43 	ldbu	r3,-11(fp)
 8000880:	10c0008d 	sth	r3,2(r2)
                                                       // size
        hid_device.interface =
            data_ptr->descr
                .interface.bInterfaceNumber; // fill in interface number to be
 8000884:	e0bffa17 	ldw	r2,-24(fp)
 8000888:	10800083 	ldbu	r2,2(r2)
        tmpbyte = devtable[addr].epinfo->MaxPktSize; // save max.packet size
        HID_init();                     // initialize data structures
        devtable[addr].epinfo = hid_ep; // switch endpoint information structure
        devtable[addr].epinfo[0].MaxPktSize = tmpbyte; // fill in max.packet
                                                       // size
        hid_device.interface =
 800088c:	d0a6fd45 	stb	r2,-25611(gp)
            data_ptr->descr
                .interface.bInterfaceNumber; // fill in interface number to be
                                             // used in HID requests
        hid_device.addr = addr; // fill in address
 8000890:	e0bffe03 	ldbu	r2,-8(fp)
 8000894:	d0a6fd05 	stb	r2,-25612(gp)
        byte_ptr =
            byte_ptr +
            data_ptr->descr.config.bLength; // skip to the next descriptor
 8000898:	e0bffa17 	ldw	r2,-24(fp)
 800089c:	10800003 	ldbu	r2,0(r2)
            data_ptr->descr
                .interface.bInterfaceNumber; // fill in interface number to be
                                             // used in HID requests
        hid_device.addr = addr; // fill in address
        byte_ptr =
            byte_ptr +
 80008a0:	10803fcc 	andi	r2,r2,255
        hid_device.interface =
            data_ptr->descr
                .interface.bInterfaceNumber; // fill in interface number to be
                                             // used in HID requests
        hid_device.addr = addr; // fill in address
        byte_ptr =
 80008a4:	e0fffb17 	ldw	r3,-20(fp)
 80008a8:	1885883a 	add	r2,r3,r2
 80008ac:	e0bffb15 	stw	r2,-20(fp)
            byte_ptr +
            data_ptr->descr.config.bLength; // skip to the next descriptor
        data_ptr = (USB_DESCR *)byte_ptr;
 80008b0:	e0bffb17 	ldw	r2,-20(fp)
 80008b4:	e0bffa15 	stw	r2,-24(fp)
        while (byte_ptr < bigbuf + total_length) {
 80008b8:	00005b06 	br	8000a28 <HIDKProbe+0x3b4>
          if (data_ptr->descr.config.bDescriptorType !=
 80008bc:	e0bffa17 	ldw	r2,-24(fp)
 80008c0:	10800043 	ldbu	r2,1(r2)
 80008c4:	10803fcc 	andi	r2,r2,255
 80008c8:	10800160 	cmpeqi	r2,r2,5
 80008cc:	1000091e 	bne	r2,zero,80008f4 <HIDKProbe+0x280>
              USB_DESCRIPTOR_ENDPOINT) { // skip to endpoint descriptor
            byte_ptr = byte_ptr + data_ptr->descr.config.bLength;
 80008d0:	e0bffa17 	ldw	r2,-24(fp)
 80008d4:	10800003 	ldbu	r2,0(r2)
 80008d8:	10803fcc 	andi	r2,r2,255
 80008dc:	e0fffb17 	ldw	r3,-20(fp)
 80008e0:	1885883a 	add	r2,r3,r2
 80008e4:	e0bffb15 	stw	r2,-20(fp)
            data_ptr = (USB_DESCR *)byte_ptr;
 80008e8:	e0bffb17 	ldw	r2,-20(fp)
 80008ec:	e0bffa15 	stw	r2,-24(fp)
 80008f0:	00004d06 	br	8000a28 <HIDKProbe+0x3b4>
          } else {
            /* fill endpoint information structure */
            devtable[addr].epinfo[1].epAddr =
 80008f4:	e0fffe03 	ldbu	r3,-8(fp)
 80008f8:	008200b4 	movhi	r2,2050
 80008fc:	10b10404 	addi	r2,r2,-15344
 8000900:	180690fa 	slli	r3,r3,3
 8000904:	10c5883a 	add	r2,r2,r3
 8000908:	10800017 	ldw	r2,0(r2)
 800090c:	10800204 	addi	r2,r2,8
                data_ptr->descr.endpoint.bEndpointAddress;
 8000910:	e0fffa17 	ldw	r3,-24(fp)
 8000914:	18c00083 	ldbu	r3,2(r3)
              USB_DESCRIPTOR_ENDPOINT) { // skip to endpoint descriptor
            byte_ptr = byte_ptr + data_ptr->descr.config.bLength;
            data_ptr = (USB_DESCR *)byte_ptr;
          } else {
            /* fill endpoint information structure */
            devtable[addr].epinfo[1].epAddr =
 8000918:	10c00005 	stb	r3,0(r2)
                data_ptr->descr.endpoint.bEndpointAddress;
            devtable[addr].epinfo[1].Attr =
 800091c:	e0fffe03 	ldbu	r3,-8(fp)
 8000920:	008200b4 	movhi	r2,2050
 8000924:	10b10404 	addi	r2,r2,-15344
 8000928:	180690fa 	slli	r3,r3,3
 800092c:	10c5883a 	add	r2,r2,r3
 8000930:	10800017 	ldw	r2,0(r2)
 8000934:	10800204 	addi	r2,r2,8
                data_ptr->descr.endpoint.bmAttributes;
 8000938:	e0fffa17 	ldw	r3,-24(fp)
 800093c:	18c000c3 	ldbu	r3,3(r3)
            data_ptr = (USB_DESCR *)byte_ptr;
          } else {
            /* fill endpoint information structure */
            devtable[addr].epinfo[1].epAddr =
                data_ptr->descr.endpoint.bEndpointAddress;
            devtable[addr].epinfo[1].Attr =
 8000940:	10c00045 	stb	r3,1(r2)
                data_ptr->descr.endpoint.bmAttributes;
            devtable[addr].epinfo[1].MaxPktSize =
 8000944:	e0fffe03 	ldbu	r3,-8(fp)
 8000948:	008200b4 	movhi	r2,2050
 800094c:	10b10404 	addi	r2,r2,-15344
 8000950:	180690fa 	slli	r3,r3,3
 8000954:	10c5883a 	add	r2,r2,r3
 8000958:	10800017 	ldw	r2,0(r2)
 800095c:	10800204 	addi	r2,r2,8
                data_ptr->descr.endpoint.wMaxPacketSize;
 8000960:	e0fffa17 	ldw	r3,-24(fp)
 8000964:	18c0010b 	ldhu	r3,4(r3)
            /* fill endpoint information structure */
            devtable[addr].epinfo[1].epAddr =
                data_ptr->descr.endpoint.bEndpointAddress;
            devtable[addr].epinfo[1].Attr =
                data_ptr->descr.endpoint.bmAttributes;
            devtable[addr].epinfo[1].MaxPktSize =
 8000968:	10c0008d 	sth	r3,2(r2)
                data_ptr->descr.endpoint.wMaxPacketSize;
            devtable[addr].epinfo[1].Interval =
 800096c:	e0fffe03 	ldbu	r3,-8(fp)
 8000970:	008200b4 	movhi	r2,2050
 8000974:	10b10404 	addi	r2,r2,-15344
 8000978:	180690fa 	slli	r3,r3,3
 800097c:	10c5883a 	add	r2,r2,r3
 8000980:	10800017 	ldw	r2,0(r2)
 8000984:	10800204 	addi	r2,r2,8
                data_ptr->descr.endpoint.bInterval;
 8000988:	e0fffa17 	ldw	r3,-24(fp)
 800098c:	18c00183 	ldbu	r3,6(r3)
                data_ptr->descr.endpoint.bEndpointAddress;
            devtable[addr].epinfo[1].Attr =
                data_ptr->descr.endpoint.bmAttributes;
            devtable[addr].epinfo[1].MaxPktSize =
                data_ptr->descr.endpoint.wMaxPacketSize;
            devtable[addr].epinfo[1].Interval =
 8000990:	10c00105 	stb	r3,4(r2)
                data_ptr->descr.endpoint.bInterval;
            /* configure device */
            rcode = XferSetConf(addr, 0, confvalue); // set configuration
 8000994:	e0fffe03 	ldbu	r3,-8(fp)
 8000998:	e0bffc43 	ldbu	r2,-15(fp)
 800099c:	d8000415 	stw	zero,16(sp)
 80009a0:	d8000315 	stw	zero,12(sp)
 80009a4:	d8000215 	stw	zero,8(sp)
 80009a8:	d8000115 	stw	zero,4(sp)
 80009ac:	d8800015 	stw	r2,0(sp)
 80009b0:	01c00244 	movi	r7,9
 80009b4:	000d883a 	mov	r6,zero
 80009b8:	000b883a 	mov	r5,zero
 80009bc:	1809883a 	mov	r4,r3
 80009c0:	80013fc0 	call	80013fc <XferCtrlReq>
 80009c4:	e0bffc05 	stb	r2,-16(fp)
            if (rcode) {                             // error handling
 80009c8:	e0bffc03 	ldbu	r2,-16(fp)
 80009cc:	10000226 	beq	r2,zero,80009d8 <HIDKProbe+0x364>
              return (FALSE);
 80009d0:	0005883a 	mov	r2,zero
 80009d4:	00002406 	br	8000a68 <HIDKProbe+0x3f4>
            }
            rcode = XferSetProto(addr, 0, hid_device.interface, BOOT_PROTOCOL);
 80009d8:	e0fffe03 	ldbu	r3,-8(fp)
 80009dc:	d0a6fd43 	ldbu	r2,-25611(gp)
 80009e0:	10803fcc 	andi	r2,r2,255
 80009e4:	d8000415 	stw	zero,16(sp)
 80009e8:	d8000315 	stw	zero,12(sp)
 80009ec:	d8800215 	stw	r2,8(sp)
 80009f0:	d8000115 	stw	zero,4(sp)
 80009f4:	d8000015 	stw	zero,0(sp)
 80009f8:	01c002c4 	movi	r7,11
 80009fc:	01800844 	movi	r6,33
 8000a00:	000b883a 	mov	r5,zero
 8000a04:	1809883a 	mov	r4,r3
 8000a08:	80013fc0 	call	80013fc <XferCtrlReq>
 8000a0c:	e0bffc05 	stb	r2,-16(fp)
            if (rcode) { // error handling
 8000a10:	e0bffc03 	ldbu	r2,-16(fp)
 8000a14:	10000226 	beq	r2,zero,8000a20 <HIDKProbe+0x3ac>
              return (FALSE);
 8000a18:	0005883a 	mov	r2,zero
 8000a1c:	00001206 	br	8000a68 <HIDKProbe+0x3f4>
            } else {
              return (TRUE);
 8000a20:	00800044 	movi	r2,1
 8000a24:	00001006 	br	8000a68 <HIDKProbe+0x3f4>
        hid_device.addr = addr; // fill in address
        byte_ptr =
            byte_ptr +
            data_ptr->descr.config.bLength; // skip to the next descriptor
        data_ptr = (USB_DESCR *)byte_ptr;
        while (byte_ptr < bigbuf + total_length) {
 8000a28:	e0fff90b 	ldhu	r3,-28(fp)
 8000a2c:	008200b4 	movhi	r2,2050
 8000a30:	10b0c404 	addi	r2,r2,-15600
 8000a34:	1885883a 	add	r2,r3,r2
 8000a38:	e0fffb17 	ldw	r3,-20(fp)
 8000a3c:	18bf9f36 	bltu	r3,r2,80008bc <HIDKProbe+0x248>
      BYTE subclass = data_ptr->descr.interface.bInterfaceSubClass;
      BYTE protocol = data_ptr->descr.interface.bInterfaceProtocol;
      // printf("class %x, subclass %x, protocol %x,\n", class, subclass,
      //		protocol);
      // interface descriptor
      if (class == HID_INTF && subclass == BOOT_INTF_SUBCLASS &&
 8000a40:	00000206 	br	8000a4c <HIDKProbe+0x3d8>
          }
        }    // while( byte_ptr....
      }      // if (Class matches
      else { // if class don't match; stop processing after first interface. Not
             // really correct
        return (FALSE);
 8000a44:	0005883a 	mov	r2,zero
 8000a48:	00000706 	br	8000a68 <HIDKProbe+0x3f4>
  if (rcode) {                      // error handling
    return (FALSE);
  }
  confvalue = data_ptr->descr.config
                  .bConfigurationValue; // save configuration value to use later
  while (byte_ptr < bigbuf + total_length) { // parse configuration
 8000a4c:	e0fff90b 	ldhu	r3,-28(fp)
 8000a50:	008200b4 	movhi	r2,2050
 8000a54:	10b0c404 	addi	r2,r2,-15600
 8000a58:	1885883a 	add	r2,r3,r2
 8000a5c:	e0fffb17 	ldw	r3,-20(fp)
 8000a60:	18bf4736 	bltu	r3,r2,8000780 <HIDKProbe+0x10c>
             // really correct
        return (FALSE);
      }
    } // else if( data_ptr->
  }   // while( byte_ptr < &buf + total_length
  return (FALSE);
 8000a64:	0005883a 	mov	r2,zero
}
 8000a68:	e037883a 	mov	sp,fp
 8000a6c:	dfc00117 	ldw	ra,4(sp)
 8000a70:	df000017 	ldw	fp,0(sp)
 8000a74:	dec00204 	addi	sp,sp,8
 8000a78:	f800283a 	ret

08000a7c <HID_init>:
/* HID data structures initialization */
void HID_init(void) {
 8000a7c:	deffff04 	addi	sp,sp,-4
 8000a80:	df000015 	stw	fp,0(sp)
 8000a84:	d839883a 	mov	fp,sp
  hid_ep[1].sndToggle = bmSNDTOG0;
 8000a88:	008200b4 	movhi	r2,2050
 8000a8c:	10aff104 	addi	r2,r2,-16444
 8000a90:	00c01004 	movi	r3,64
 8000a94:	10c00345 	stb	r3,13(r2)
  hid_ep[1].rcvToggle = bmRCVTOG0;
 8000a98:	008200b4 	movhi	r2,2050
 8000a9c:	10aff104 	addi	r2,r2,-16444
 8000aa0:	00c00404 	movi	r3,16
 8000aa4:	10c00385 	stb	r3,14(r2)
}
 8000aa8:	0001883a 	nop
 8000aac:	e037883a 	mov	sp,fp
 8000ab0:	df000017 	ldw	fp,0(sp)
 8000ab4:	dec00104 	addi	sp,sp,4
 8000ab8:	f800283a 	ret

08000abc <mousePoll>:
/* poll boot mouse */
BYTE mousePoll(BOOT_MOUSE_REPORT *buf) {
 8000abc:	defffb04 	addi	sp,sp,-20
 8000ac0:	dfc00415 	stw	ra,16(sp)
 8000ac4:	df000315 	stw	fp,12(sp)
 8000ac8:	df000304 	addi	fp,sp,12
 8000acc:	e13fff15 	stw	r4,-4(fp)
  BYTE rcode;
  MAXreg_wr(rPERADDR, hid_device.addr); // set peripheral address
 8000ad0:	d0a6fd03 	ldbu	r2,-25612(gp)
 8000ad4:	10803fcc 	andi	r2,r2,255
 8000ad8:	100b883a 	mov	r5,r2
 8000adc:	01003804 	movi	r4,224
 8000ae0:	8000c980 	call	8000c98 <MAXreg_wr>
  rcode = XferInTransfer(hid_device.addr, 1, 8, (BYTE *)buf,
 8000ae4:	d0a6fd03 	ldbu	r2,-25612(gp)
 8000ae8:	11003fcc 	andi	r4,r2,255
                         devtable[hid_device.addr].epinfo[1].MaxPktSize);
 8000aec:	d0a6fd03 	ldbu	r2,-25612(gp)
 8000af0:	10c03fcc 	andi	r3,r2,255
 8000af4:	008200b4 	movhi	r2,2050
 8000af8:	10b10404 	addi	r2,r2,-15344
 8000afc:	180690fa 	slli	r3,r3,3
 8000b00:	10c5883a 	add	r2,r2,r3
 8000b04:	10800017 	ldw	r2,0(r2)
 8000b08:	10800204 	addi	r2,r2,8
 8000b0c:	1080008b 	ldhu	r2,2(r2)
}
/* poll boot mouse */
BYTE mousePoll(BOOT_MOUSE_REPORT *buf) {
  BYTE rcode;
  MAXreg_wr(rPERADDR, hid_device.addr); // set peripheral address
  rcode = XferInTransfer(hid_device.addr, 1, 8, (BYTE *)buf,
 8000b10:	10803fcc 	andi	r2,r2,255
 8000b14:	d8800015 	stw	r2,0(sp)
 8000b18:	e1ffff17 	ldw	r7,-4(fp)
 8000b1c:	01800204 	movi	r6,8
 8000b20:	01400044 	movi	r5,1
 8000b24:	80018200 	call	8001820 <XferInTransfer>
 8000b28:	e0bffe05 	stb	r2,-8(fp)
                         devtable[hid_device.addr].epinfo[1].MaxPktSize);
  return (rcode);
 8000b2c:	e0bffe03 	ldbu	r2,-8(fp)
}
 8000b30:	e037883a 	mov	sp,fp
 8000b34:	dfc00117 	ldw	ra,4(sp)
 8000b38:	df000017 	ldw	fp,0(sp)
 8000b3c:	dec00204 	addi	sp,sp,8
 8000b40:	f800283a 	ret

08000b44 <kbdPoll>:
/* poll boot keyboard */
BYTE kbdPoll(BOOT_KBD_REPORT *buf) {
 8000b44:	defffb04 	addi	sp,sp,-20
 8000b48:	dfc00415 	stw	ra,16(sp)
 8000b4c:	df000315 	stw	fp,12(sp)
 8000b50:	df000304 	addi	fp,sp,12
 8000b54:	e13fff15 	stw	r4,-4(fp)
  BYTE rcode;
  MAXreg_wr(rPERADDR, hid_device.addr); // set peripheral address
 8000b58:	d0a6fd03 	ldbu	r2,-25612(gp)
 8000b5c:	10803fcc 	andi	r2,r2,255
 8000b60:	100b883a 	mov	r5,r2
 8000b64:	01003804 	movi	r4,224
 8000b68:	8000c980 	call	8000c98 <MAXreg_wr>
  rcode = XferInTransfer(hid_device.addr, 1, 8, (BYTE *)buf,
 8000b6c:	d0a6fd03 	ldbu	r2,-25612(gp)
 8000b70:	11003fcc 	andi	r4,r2,255
                         devtable[hid_device.addr].epinfo[1].MaxPktSize);
 8000b74:	d0a6fd03 	ldbu	r2,-25612(gp)
 8000b78:	10c03fcc 	andi	r3,r2,255
 8000b7c:	008200b4 	movhi	r2,2050
 8000b80:	10b10404 	addi	r2,r2,-15344
 8000b84:	180690fa 	slli	r3,r3,3
 8000b88:	10c5883a 	add	r2,r2,r3
 8000b8c:	10800017 	ldw	r2,0(r2)
 8000b90:	10800204 	addi	r2,r2,8
 8000b94:	1080008b 	ldhu	r2,2(r2)
}
/* poll boot keyboard */
BYTE kbdPoll(BOOT_KBD_REPORT *buf) {
  BYTE rcode;
  MAXreg_wr(rPERADDR, hid_device.addr); // set peripheral address
  rcode = XferInTransfer(hid_device.addr, 1, 8, (BYTE *)buf,
 8000b98:	10803fcc 	andi	r2,r2,255
 8000b9c:	d8800015 	stw	r2,0(sp)
 8000ba0:	e1ffff17 	ldw	r7,-4(fp)
 8000ba4:	01800204 	movi	r6,8
 8000ba8:	01400044 	movi	r5,1
 8000bac:	80018200 	call	8001820 <XferInTransfer>
 8000bb0:	e0bffe05 	stb	r2,-8(fp)
                         devtable[hid_device.addr].epinfo[1].MaxPktSize);
  return (rcode);
 8000bb4:	e0bffe03 	ldbu	r2,-8(fp)
}
 8000bb8:	e037883a 	mov	sp,fp
 8000bbc:	dfc00117 	ldw	ra,4(sp)
 8000bc0:	df000017 	ldw	fp,0(sp)
 8000bc4:	dec00204 	addi	sp,sp,8
 8000bc8:	f800283a 	ret

08000bcc <HIDMEventHandler>:
BOOL HIDMEventHandler(BYTE address, BYTE event, void *data, DWORD size) {
 8000bcc:	defffb04 	addi	sp,sp,-20
 8000bd0:	df000415 	stw	fp,16(sp)
 8000bd4:	df000404 	addi	fp,sp,16
 8000bd8:	2007883a 	mov	r3,r4
 8000bdc:	2805883a 	mov	r2,r5
 8000be0:	e1bffe15 	stw	r6,-8(fp)
 8000be4:	e1ffff15 	stw	r7,-4(fp)
 8000be8:	e0fffc05 	stb	r3,-16(fp)
 8000bec:	e0bffd05 	stb	r2,-12(fp)
  return (FALSE);
 8000bf0:	0005883a 	mov	r2,zero
}
 8000bf4:	e037883a 	mov	sp,fp
 8000bf8:	df000017 	ldw	fp,0(sp)
 8000bfc:	dec00104 	addi	sp,sp,4
 8000c00:	f800283a 	ret

08000c04 <HIDKEventHandler>:
BOOL HIDKEventHandler(BYTE address, BYTE event, void *data, DWORD size) {
 8000c04:	defffb04 	addi	sp,sp,-20
 8000c08:	df000415 	stw	fp,16(sp)
 8000c0c:	df000404 	addi	fp,sp,16
 8000c10:	2007883a 	mov	r3,r4
 8000c14:	2805883a 	mov	r2,r5
 8000c18:	e1bffe15 	stw	r6,-8(fp)
 8000c1c:	e1ffff15 	stw	r7,-4(fp)
 8000c20:	e0fffc05 	stb	r3,-16(fp)
 8000c24:	e0bffd05 	stb	r2,-12(fp)
  return (FALSE);
 8000c28:	0005883a 	mov	r2,zero
}
 8000c2c:	e037883a 	mov	sp,fp
 8000c30:	df000017 	ldw	fp,0(sp)
 8000c34:	dec00104 	addi	sp,sp,4
 8000c38:	f800283a 	ret

08000c3c <SPI_init>:
// variables and data structures
// External variables
extern BYTE usb_task_state;

/* Functions    */
void SPI_init(BYTE sync_mode, BYTE bus_mode, BYTE smp_phase) {
 8000c3c:	defffc04 	addi	sp,sp,-16
 8000c40:	df000315 	stw	fp,12(sp)
 8000c44:	df000304 	addi	fp,sp,12
 8000c48:	2807883a 	mov	r3,r5
 8000c4c:	3005883a 	mov	r2,r6
 8000c50:	e13ffd05 	stb	r4,-12(fp)
 8000c54:	e0fffe05 	stb	r3,-8(fp)
 8000c58:	e0bfff05 	stb	r2,-4(fp)
  // Don't need to initialize SPI port, already ready to go with BSP
}
 8000c5c:	0001883a 	nop
 8000c60:	e037883a 	mov	sp,fp
 8000c64:	df000017 	ldw	fp,0(sp)
 8000c68:	dec00104 	addi	sp,sp,4
 8000c6c:	f800283a 	ret

08000c70 <SPI_wr>:

// writes single byte to MAX3421E via SPI, simultanously reads status register
// and returns it
BYTE SPI_wr(BYTE data) {
 8000c70:	defffe04 	addi	sp,sp,-8
 8000c74:	df000115 	stw	fp,4(sp)
 8000c78:	df000104 	addi	fp,sp,4
 8000c7c:	2005883a 	mov	r2,r4
 8000c80:	e0bfff05 	stb	r2,-4(fp)
  // This function is never used by the code, so you do not need to fill it in
}
 8000c84:	0001883a 	nop
 8000c88:	e037883a 	mov	sp,fp
 8000c8c:	df000017 	ldw	fp,0(sp)
 8000c90:	dec00104 	addi	sp,sp,4
 8000c94:	f800283a 	ret

08000c98 <MAXreg_wr>:
// writes register to MAX3421E via SPI
void MAXreg_wr(BYTE reg, BYTE val) {
 8000c98:	defff704 	addi	sp,sp,-36
 8000c9c:	dfc00815 	stw	ra,32(sp)
 8000ca0:	df000715 	stw	fp,28(sp)
 8000ca4:	df000704 	addi	fp,sp,28
 8000ca8:	2007883a 	mov	r3,r4
 8000cac:	2805883a 	mov	r2,r5
 8000cb0:	e0fffe05 	stb	r3,-8(fp)
 8000cb4:	e0bfff05 	stb	r2,-4(fp)
  //                        const alt_u8* wdata,
  //                        alt_u32 read_length,
  //                        alt_u8* read_data,
  //                        alt_u32 flags)
  // write reg + 2 via SPI
  alt_u8 sendData[2] = {reg + 2, val};
 8000cb8:	e0bffe03 	ldbu	r2,-8(fp)
 8000cbc:	10800084 	addi	r2,r2,2
 8000cc0:	e0bffd05 	stb	r2,-12(fp)
 8000cc4:	e0bfff03 	ldbu	r2,-4(fp)
 8000cc8:	e0bffd45 	stb	r2,-11(fp)
  int ret = alt_avalon_spi_command(SPI_0_BASE, USB_SS, 2, sendData, 0, NULL, 0);
 8000ccc:	e0bffd04 	addi	r2,fp,-12
 8000cd0:	d8000215 	stw	zero,8(sp)
 8000cd4:	d8000115 	stw	zero,4(sp)
 8000cd8:	d8000015 	stw	zero,0(sp)
 8000cdc:	100f883a 	mov	r7,r2
 8000ce0:	01800084 	movi	r6,2
 8000ce4:	01400044 	movi	r5,1
 8000ce8:	01000074 	movhi	r4,1
 8000cec:	21042804 	addi	r4,r4,4256
 8000cf0:	8016bc80 	call	8016bc8 <alt_avalon_spi_command>
 8000cf4:	e0bffc15 	stw	r2,-16(fp)
  // write val via SPI
  // read return code from SPI peripheral (see Intel documentation)
  // if return code < 0 print an error
  if (ret < 0)
 8000cf8:	e0bffc17 	ldw	r2,-16(fp)
 8000cfc:	1000030e 	bge	r2,zero,8000d0c <MAXreg_wr+0x74>
    printf("error in MAXreg_wr - readData less than 0");
 8000d00:	010200b4 	movhi	r4,2050
 8000d04:	21203804 	addi	r4,r4,-32544
 8000d08:	80081d40 	call	80081d4 <printf>
  // deselect MAX3421E (may not be necessary if you are using SPI peripheral)
}
 8000d0c:	0001883a 	nop
 8000d10:	e037883a 	mov	sp,fp
 8000d14:	dfc00117 	ldw	ra,4(sp)
 8000d18:	df000017 	ldw	fp,0(sp)
 8000d1c:	dec00204 	addi	sp,sp,8
 8000d20:	f800283a 	ret

08000d24 <MAXbytes_wr>:
// multiple-byte write
// returns a pointer to a memory position after last written
BYTE *MAXbytes_wr(BYTE reg, BYTE nbytes, BYTE *data) {
 8000d24:	defff304 	addi	sp,sp,-52
 8000d28:	dfc00c15 	stw	ra,48(sp)
 8000d2c:	df000b15 	stw	fp,44(sp)
 8000d30:	dc000a15 	stw	r16,40(sp)
 8000d34:	df000b04 	addi	fp,sp,44
 8000d38:	201b883a 	mov	r13,r4
 8000d3c:	2809883a 	mov	r4,r5
 8000d40:	e1bffe15 	stw	r6,-8(fp)
 8000d44:	e37ffc05 	stb	r13,-16(fp)
 8000d48:	e13ffd05 	stb	r4,-12(fp)
 8000d4c:	d809883a 	mov	r4,sp
 8000d50:	2021883a 	mov	r16,r4
  // psuedocode:
  // select MAX3421E (may not be necessary if you are using SPI peripheral)
  // write reg + 2 via SPI
  alt_u8 sendData[nbytes + 1];
 8000d54:	e13ffd03 	ldbu	r4,-12(fp)
 8000d58:	21000044 	addi	r4,r4,1
 8000d5c:	217fffc4 	addi	r5,r4,-1
 8000d60:	e17ff915 	stw	r5,-28(fp)
 8000d64:	200b883a 	mov	r5,r4
 8000d68:	2817883a 	mov	r11,r5
 8000d6c:	0019883a 	mov	r12,zero
 8000d70:	580ad77a 	srli	r5,r11,29
 8000d74:	601090fa 	slli	r8,r12,3
 8000d78:	2a10b03a 	or	r8,r5,r8
 8000d7c:	580e90fa 	slli	r7,r11,3
 8000d80:	200b883a 	mov	r5,r4
 8000d84:	2813883a 	mov	r9,r5
 8000d88:	0015883a 	mov	r10,zero
 8000d8c:	480ad77a 	srli	r5,r9,29
 8000d90:	500690fa 	slli	r3,r10,3
 8000d94:	28c6b03a 	or	r3,r5,r3
 8000d98:	480490fa 	slli	r2,r9,3
 8000d9c:	2005883a 	mov	r2,r4
 8000da0:	108000c4 	addi	r2,r2,3
 8000da4:	1004d0ba 	srli	r2,r2,2
 8000da8:	1085883a 	add	r2,r2,r2
 8000dac:	1085883a 	add	r2,r2,r2
 8000db0:	d8b7c83a 	sub	sp,sp,r2
 8000db4:	d8800304 	addi	r2,sp,12
 8000db8:	1005883a 	mov	r2,r2
 8000dbc:	e0bffa15 	stw	r2,-24(fp)
  sendData[0] = reg + 2;
 8000dc0:	e0bffc03 	ldbu	r2,-16(fp)
 8000dc4:	10800084 	addi	r2,r2,2
 8000dc8:	1007883a 	mov	r3,r2
 8000dcc:	e0bffa17 	ldw	r2,-24(fp)
 8000dd0:	10c00005 	stb	r3,0(r2)

  for (int i = 1; i < nbytes + 1; i++)
 8000dd4:	00800044 	movi	r2,1
 8000dd8:	e0bff815 	stw	r2,-32(fp)
 8000ddc:	00000c06 	br	8000e10 <MAXbytes_wr+0xec>
    sendData[i] = data[i - 1];
 8000de0:	e0bff817 	ldw	r2,-32(fp)
 8000de4:	10bfffc4 	addi	r2,r2,-1
 8000de8:	e0fffe17 	ldw	r3,-8(fp)
 8000dec:	1885883a 	add	r2,r3,r2
 8000df0:	10c00003 	ldbu	r3,0(r2)
 8000df4:	e13ffa17 	ldw	r4,-24(fp)
 8000df8:	e0bff817 	ldw	r2,-32(fp)
 8000dfc:	2085883a 	add	r2,r4,r2
 8000e00:	10c00005 	stb	r3,0(r2)
  // select MAX3421E (may not be necessary if you are using SPI peripheral)
  // write reg + 2 via SPI
  alt_u8 sendData[nbytes + 1];
  sendData[0] = reg + 2;

  for (int i = 1; i < nbytes + 1; i++)
 8000e04:	e0bff817 	ldw	r2,-32(fp)
 8000e08:	10800044 	addi	r2,r2,1
 8000e0c:	e0bff815 	stw	r2,-32(fp)
 8000e10:	e0bffd03 	ldbu	r2,-12(fp)
 8000e14:	10800044 	addi	r2,r2,1
 8000e18:	e0fff817 	ldw	r3,-32(fp)
 8000e1c:	18bff016 	blt	r3,r2,8000de0 <MAXbytes_wr+0xbc>
    sendData[i] = data[i - 1];

  // write data[n] via SPI, where n goes from 0 to nbytes-1
  int ret = alt_avalon_spi_command(SPI_0_BASE, USB_SS, nbytes + 1, sendData, 0,
 8000e20:	e0bffd03 	ldbu	r2,-12(fp)
 8000e24:	10800044 	addi	r2,r2,1
 8000e28:	1007883a 	mov	r3,r2
 8000e2c:	e0bffa17 	ldw	r2,-24(fp)
 8000e30:	d8000215 	stw	zero,8(sp)
 8000e34:	d8000115 	stw	zero,4(sp)
 8000e38:	d8000015 	stw	zero,0(sp)
 8000e3c:	100f883a 	mov	r7,r2
 8000e40:	180d883a 	mov	r6,r3
 8000e44:	01400044 	movi	r5,1
 8000e48:	01000074 	movhi	r4,1
 8000e4c:	21042804 	addi	r4,r4,4256
 8000e50:	8016bc80 	call	8016bc8 <alt_avalon_spi_command>
 8000e54:	e0bffb15 	stw	r2,-20(fp)
                                   NULL, 0);
  // read return code from SPI peripheral (see Intel documentation)
  // if return code < 0  print an error
  if (ret < 0) {
 8000e58:	e0bffb17 	ldw	r2,-20(fp)
 8000e5c:	1000030e 	bge	r2,zero,8000e6c <MAXbytes_wr+0x148>
    printf("error in MAXbytes_wr - readData less than 0");
 8000e60:	010200b4 	movhi	r4,2050
 8000e64:	21204304 	addi	r4,r4,-32500
 8000e68:	80081d40 	call	80081d4 <printf>
    // return (BYTE)-1;
  }
  // deselect MAX3421E (may not be necessary if you are using SPI peripheral)
  // return (data + nbytes);
  return (data + nbytes);
 8000e6c:	e0bffd03 	ldbu	r2,-12(fp)
 8000e70:	e0fffe17 	ldw	r3,-8(fp)
 8000e74:	1885883a 	add	r2,r3,r2
 8000e78:	8037883a 	mov	sp,r16
}
 8000e7c:	e6ffff04 	addi	sp,fp,-4
 8000e80:	dfc00217 	ldw	ra,8(sp)
 8000e84:	df000117 	ldw	fp,4(sp)
 8000e88:	dc000017 	ldw	r16,0(sp)
 8000e8c:	dec00304 	addi	sp,sp,12
 8000e90:	f800283a 	ret

08000e94 <MAXreg_rd>:

// reads register from MAX3421E via SPI
BYTE MAXreg_rd(BYTE reg) {
 8000e94:	defff804 	addi	sp,sp,-32
 8000e98:	dfc00715 	stw	ra,28(sp)
 8000e9c:	df000615 	stw	fp,24(sp)
 8000ea0:	df000604 	addi	fp,sp,24
 8000ea4:	2005883a 	mov	r2,r4
 8000ea8:	e0bfff05 	stb	r2,-4(fp)
  // select MAX3421E (may not be necessary if you are using SPI peripheral)
  //  - Device driver does this
  // write reg via SPI
  alt_u8 readData[1];
  alt_u8 send[1];
  send[0] = reg;
 8000eac:	e0bfff03 	ldbu	r2,-4(fp)
 8000eb0:	e0bffe45 	stb	r2,-7(fp)
  int ret = alt_avalon_spi_command(SPI_0_BASE, USB_SS, 1, send, 1, readData, 0);
 8000eb4:	e0fffe44 	addi	r3,fp,-7
 8000eb8:	d8000215 	stw	zero,8(sp)
 8000ebc:	e0bffe04 	addi	r2,fp,-8
 8000ec0:	d8800115 	stw	r2,4(sp)
 8000ec4:	00800044 	movi	r2,1
 8000ec8:	d8800015 	stw	r2,0(sp)
 8000ecc:	180f883a 	mov	r7,r3
 8000ed0:	01800044 	movi	r6,1
 8000ed4:	01400044 	movi	r5,1
 8000ed8:	01000074 	movhi	r4,1
 8000edc:	21042804 	addi	r4,r4,4256
 8000ee0:	8016bc80 	call	8016bc8 <alt_avalon_spi_command>
 8000ee4:	e0bffd15 	stw	r2,-12(fp)
  // read val via SPI
  // read return code from SPI peripheral (see Intel documentation)
  // if return code < 0 print an error
  if (ret < 0) {
 8000ee8:	e0bffd17 	ldw	r2,-12(fp)
 8000eec:	1000030e 	bge	r2,zero,8000efc <MAXreg_rd+0x68>
    printf("error in MAXreg_rd - readData less than 0");
 8000ef0:	010200b4 	movhi	r4,2050
 8000ef4:	21204e04 	addi	r4,r4,-32456
 8000ef8:	80081d40 	call	80081d4 <printf>
  }

  // deselect MAX3421E (may not be necessary if you are using SPI peripheral)
  //  - Device driver does this
  // return val
  return readData[0];
 8000efc:	e0bffe03 	ldbu	r2,-8(fp)
}
 8000f00:	e037883a 	mov	sp,fp
 8000f04:	dfc00117 	ldw	ra,4(sp)
 8000f08:	df000017 	ldw	fp,0(sp)
 8000f0c:	dec00204 	addi	sp,sp,8
 8000f10:	f800283a 	ret

08000f14 <MAXbytes_rd>:

// multiple-byte write
// returns a pointer to a memory position after last written
BYTE *MAXbytes_rd(BYTE reg, BYTE nbytes, BYTE *data) {
 8000f14:	defff604 	addi	sp,sp,-40
 8000f18:	dfc00915 	stw	ra,36(sp)
 8000f1c:	df000815 	stw	fp,32(sp)
 8000f20:	df000804 	addi	fp,sp,32
 8000f24:	2007883a 	mov	r3,r4
 8000f28:	2805883a 	mov	r2,r5
 8000f2c:	e1bfff15 	stw	r6,-4(fp)
 8000f30:	e0fffd05 	stb	r3,-12(fp)
 8000f34:	e0bffe05 	stb	r2,-8(fp)
  // psuedocode:
  // select MAX3421E (may not be necessary if you are using SPI peripheral)
  // write reg via SPI
  //  alt_u8 readData;
  alt_u8 send[1] = {reg};
 8000f38:	e0bffd03 	ldbu	r2,-12(fp)
 8000f3c:	e0bffc05 	stb	r2,-16(fp)
  int ret =
      alt_avalon_spi_command(SPI_0_BASE, USB_SS, 1, send, nbytes, data, 0);
 8000f40:	e0bffe03 	ldbu	r2,-8(fp)
  // psuedocode:
  // select MAX3421E (may not be necessary if you are using SPI peripheral)
  // write reg via SPI
  //  alt_u8 readData;
  alt_u8 send[1] = {reg};
  int ret =
 8000f44:	e13ffc04 	addi	r4,fp,-16
 8000f48:	d8000215 	stw	zero,8(sp)
 8000f4c:	e0ffff17 	ldw	r3,-4(fp)
 8000f50:	d8c00115 	stw	r3,4(sp)
 8000f54:	d8800015 	stw	r2,0(sp)
 8000f58:	200f883a 	mov	r7,r4
 8000f5c:	01800044 	movi	r6,1
 8000f60:	01400044 	movi	r5,1
 8000f64:	01000074 	movhi	r4,1
 8000f68:	21042804 	addi	r4,r4,4256
 8000f6c:	8016bc80 	call	8016bc8 <alt_avalon_spi_command>
 8000f70:	e0bffb15 	stw	r2,-20(fp)
      alt_avalon_spi_command(SPI_0_BASE, USB_SS, 1, send, nbytes, data, 0);
  // read data[n] from SPI, where n goes from 0 to nbytes-1
  // read return code from SPI peripheral (see Intel documentation)
  // if return code < 0 print an error
  if (ret < 0) {
 8000f74:	e0bffb17 	ldw	r2,-20(fp)
 8000f78:	1000030e 	bge	r2,zero,8000f88 <MAXbytes_rd+0x74>
    printf("error in MAXbytes_rd - readData less than 0");
 8000f7c:	010200b4 	movhi	r4,2050
 8000f80:	21205904 	addi	r4,r4,-32412
 8000f84:	80081d40 	call	80081d4 <printf>
    // return (BYTE)-1;
  }

  // deselect MAX3421E (may not be necessary if you are using SPI peripheral)
  // return (data + nbytes);
  return (data + nbytes);
 8000f88:	e0bffe03 	ldbu	r2,-8(fp)
 8000f8c:	e0ffff17 	ldw	r3,-4(fp)
 8000f90:	1885883a 	add	r2,r3,r2
}
 8000f94:	e037883a 	mov	sp,fp
 8000f98:	dfc00117 	ldw	ra,4(sp)
 8000f9c:	df000017 	ldw	fp,0(sp)
 8000fa0:	dec00204 	addi	sp,sp,8
 8000fa4:	f800283a 	ret

08000fa8 <MAX3421E_reset>:
/* reset MAX3421E using chip reset bit. SPI configuration is not affected   */
void MAX3421E_reset(void) {
 8000fa8:	defffd04 	addi	sp,sp,-12
 8000fac:	dfc00215 	stw	ra,8(sp)
 8000fb0:	df000115 	stw	fp,4(sp)
 8000fb4:	df000104 	addi	fp,sp,4
  // hardware reset, then software reset
  IOWR_ALTERA_AVALON_PIO_DATA(USB_RST_BASE, 0);
 8000fb8:	0007883a 	mov	r3,zero
 8000fbc:	00800074 	movhi	r2,1
 8000fc0:	10845404 	addi	r2,r2,4432
 8000fc4:	10c00035 	stwio	r3,0(r2)
  usleep(1000000);
 8000fc8:	010003f4 	movhi	r4,15
 8000fcc:	21109004 	addi	r4,r4,16960
 8000fd0:	8015f200 	call	8015f20 <usleep>
  IOWR_ALTERA_AVALON_PIO_DATA(USB_RST_BASE, 1);
 8000fd4:	00c00044 	movi	r3,1
 8000fd8:	00800074 	movhi	r2,1
 8000fdc:	10845404 	addi	r2,r2,4432
 8000fe0:	10c00035 	stwio	r3,0(r2)
  BYTE tmp = 0;
 8000fe4:	e03fff05 	stb	zero,-4(fp)
  MAXreg_wr(rUSBCTL, bmCHIPRES); // Chip reset. This stops the oscillator
 8000fe8:	01400804 	movi	r5,32
 8000fec:	01001e04 	movi	r4,120
 8000ff0:	8000c980 	call	8000c98 <MAXreg_wr>
  MAXreg_wr(rUSBCTL, 0x00);      // Remove the reset
 8000ff4:	000b883a 	mov	r5,zero
 8000ff8:	01001e04 	movi	r4,120
 8000ffc:	8000c980 	call	8000c98 <MAXreg_wr>
  while (!(MAXreg_rd(rUSBIRQ) & bmOSCOKIRQ)) { // wait until the PLL stabilizes
 8001000:	00000806 	br	8001024 <MAX3421E_reset+0x7c>
    tmp++;                                     // timeout after 256 attempts
 8001004:	e0bfff03 	ldbu	r2,-4(fp)
 8001008:	10800044 	addi	r2,r2,1
 800100c:	e0bfff05 	stb	r2,-4(fp)
    if (tmp == 0) {
 8001010:	e0bfff03 	ldbu	r2,-4(fp)
 8001014:	1000031e 	bne	r2,zero,8001024 <MAX3421E_reset+0x7c>
      printf("reset timeout!");
 8001018:	010200b4 	movhi	r4,2050
 800101c:	21206404 	addi	r4,r4,-32368
 8001020:	80081d40 	call	80081d4 <printf>
  usleep(1000000);
  IOWR_ALTERA_AVALON_PIO_DATA(USB_RST_BASE, 1);
  BYTE tmp = 0;
  MAXreg_wr(rUSBCTL, bmCHIPRES); // Chip reset. This stops the oscillator
  MAXreg_wr(rUSBCTL, 0x00);      // Remove the reset
  while (!(MAXreg_rd(rUSBIRQ) & bmOSCOKIRQ)) { // wait until the PLL stabilizes
 8001024:	01001a04 	movi	r4,104
 8001028:	8000e940 	call	8000e94 <MAXreg_rd>
 800102c:	10803fcc 	andi	r2,r2,255
 8001030:	1080004c 	andi	r2,r2,1
 8001034:	103ff326 	beq	r2,zero,8001004 <MAX3421E_reset+0x5c>
    tmp++;                                     // timeout after 256 attempts
    if (tmp == 0) {
      printf("reset timeout!");
    }
  }
}
 8001038:	0001883a 	nop
 800103c:	e037883a 	mov	sp,fp
 8001040:	dfc00117 	ldw	ra,4(sp)
 8001044:	df000017 	ldw	fp,0(sp)
 8001048:	dec00204 	addi	sp,sp,8
 800104c:	f800283a 	ret

08001050 <Vbus_power>:
/* turn USB power on/off                                                */
/* ON pin of VBUS switch (MAX4793 or similar) is connected to GPOUT7    */
/* OVERLOAD pin of Vbus switch is connected to GPIN7                    */
/* OVERLOAD state low. NO OVERLOAD or VBUS OFF state high.              */
BOOL Vbus_power(BOOL action) {
 8001050:	defffe04 	addi	sp,sp,-8
 8001054:	df000115 	stw	fp,4(sp)
 8001058:	df000104 	addi	fp,sp,4
 800105c:	e13fff15 	stw	r4,-4(fp)
  // power on/off successful
  return (1);
 8001060:	00800044 	movi	r2,1
}
 8001064:	e037883a 	mov	sp,fp
 8001068:	df000017 	ldw	fp,0(sp)
 800106c:	dec00104 	addi	sp,sp,4
 8001070:	f800283a 	ret

08001074 <MAX_busprobe>:

/* probe bus to determine device presense and speed */
void MAX_busprobe(void) {
 8001074:	defffd04 	addi	sp,sp,-12
 8001078:	dfc00215 	stw	ra,8(sp)
 800107c:	df000115 	stw	fp,4(sp)
 8001080:	df000104 	addi	fp,sp,4
  BYTE bus_sample;

  //  MAXreg_wr(rHCTL,bmSAMPLEBUS);
  bus_sample = MAXreg_rd(rHRSL);         // Get J,K status
 8001084:	01003e04 	movi	r4,248
 8001088:	8000e940 	call	8000e94 <MAXreg_rd>
 800108c:	e0bfff05 	stb	r2,-4(fp)
  bus_sample &= (bmJSTATUS | bmKSTATUS); // zero the rest of the byte
 8001090:	e0ffff03 	ldbu	r3,-4(fp)
 8001094:	00bff004 	movi	r2,-64
 8001098:	1884703a 	and	r2,r3,r2
 800109c:	e0bfff05 	stb	r2,-4(fp)

  switch (bus_sample) { // start full-speed or low-speed host
 80010a0:	e0bfff03 	ldbu	r2,-4(fp)
 80010a4:	10c01020 	cmpeqi	r3,r2,64
 80010a8:	1800221e 	bne	r3,zero,8001134 <MAX_busprobe+0xc0>
 80010ac:	10c01048 	cmpgei	r3,r2,65
 80010b0:	1800021e 	bne	r3,zero,80010bc <MAX_busprobe+0x48>
 80010b4:	10003b26 	beq	r2,zero,80011a4 <MAX_busprobe+0x130>
      MAXreg_wr(rMODE, MODE_FS_HOST); // start full-speed host
      usb_task_state = (USB_DETACHED_SUBSTATE_WAIT_FOR_DEVICE);
    }
    break;
  } // end switch( bus_sample )
}
 80010b8:	00004a06 	br	80011e4 <MAX_busprobe+0x170>

  //  MAXreg_wr(rHCTL,bmSAMPLEBUS);
  bus_sample = MAXreg_rd(rHRSL);         // Get J,K status
  bus_sample &= (bmJSTATUS | bmKSTATUS); // zero the rest of the byte

  switch (bus_sample) { // start full-speed or low-speed host
 80010bc:	10c02020 	cmpeqi	r3,r2,128
 80010c0:	1800031e 	bne	r3,zero,80010d0 <MAX_busprobe+0x5c>
 80010c4:	10803020 	cmpeqi	r2,r2,192
 80010c8:	1000331e 	bne	r2,zero,8001198 <MAX_busprobe+0x124>
      MAXreg_wr(rMODE, MODE_FS_HOST); // start full-speed host
      usb_task_state = (USB_DETACHED_SUBSTATE_WAIT_FOR_DEVICE);
    }
    break;
  } // end switch( bus_sample )
}
 80010cc:	00004506 	br	80011e4 <MAX_busprobe+0x170>
  bus_sample &= (bmJSTATUS | bmKSTATUS); // zero the rest of the byte

  switch (bus_sample) { // start full-speed or low-speed host
  case (bmJSTATUS):
    /*kludgy*/
    if (usb_task_state !=
 80010d0:	d0a00203 	ldbu	r2,-32760(gp)
 80010d4:	10803fcc 	andi	r2,r2,255
 80010d8:	108004e0 	cmpeqi	r2,r2,19
 80010dc:	10003e1e 	bne	r2,zero,80011d8 <MAX_busprobe+0x164>
        USB_ATTACHED_SUBSTATE_WAIT_RESET_COMPLETE) { // bus reset causes
                                                     // connection detect
                                                     // interrupt
      if (!(MAXreg_rd(rMODE) & bmLOWSPEED)) {
 80010e0:	01003604 	movi	r4,216
 80010e4:	8000e940 	call	8000e94 <MAXreg_rd>
 80010e8:	10803fcc 	andi	r2,r2,255
 80010ec:	1080008c 	andi	r2,r2,2
 80010f0:	1000071e 	bne	r2,zero,8001110 <MAX_busprobe+0x9c>
        MAXreg_wr(rMODE, MODE_FS_HOST); // start full-speed host
 80010f4:	01403244 	movi	r5,201
 80010f8:	01003604 	movi	r4,216
 80010fc:	8000c980 	call	8000c98 <MAXreg_wr>
        printf("Starting in full speed\n");
 8001100:	010200b4 	movhi	r4,2050
 8001104:	21206804 	addi	r4,r4,-32352
 8001108:	80082f00 	call	80082f0 <puts>
 800110c:	00000606 	br	8001128 <MAX_busprobe+0xb4>
      } else {
        MAXreg_wr(rMODE, MODE_LS_HOST); // start low-speed host
 8001110:	014032c4 	movi	r5,203
 8001114:	01003604 	movi	r4,216
 8001118:	8000c980 	call	8000c98 <MAXreg_wr>
        printf("Starting in low speed\n");
 800111c:	010200b4 	movhi	r4,2050
 8001120:	21206e04 	addi	r4,r4,-32328
 8001124:	80082f00 	call	80082f0 <puts>
      }
      usb_task_state = (USB_STATE_ATTACHED); // signal usb state machine to
 8001128:	00800404 	movi	r2,16
 800112c:	d0a00205 	stb	r2,-32760(gp)
                                             // start attachment sequence
    }
    break;
 8001130:	00002906 	br	80011d8 <MAX_busprobe+0x164>
  case (bmKSTATUS):
    if (usb_task_state !=
 8001134:	d0a00203 	ldbu	r2,-32760(gp)
 8001138:	10803fcc 	andi	r2,r2,255
 800113c:	108004e0 	cmpeqi	r2,r2,19
 8001140:	1000271e 	bne	r2,zero,80011e0 <MAX_busprobe+0x16c>
        USB_ATTACHED_SUBSTATE_WAIT_RESET_COMPLETE) { // bus reset causes
                                                     // connection detect
                                                     // interrupt
      if (!(MAXreg_rd(rMODE) & bmLOWSPEED)) {
 8001144:	01003604 	movi	r4,216
 8001148:	8000e940 	call	8000e94 <MAXreg_rd>
 800114c:	10803fcc 	andi	r2,r2,255
 8001150:	1080008c 	andi	r2,r2,2
 8001154:	1000071e 	bne	r2,zero,8001174 <MAX_busprobe+0x100>
        MAXreg_wr(rMODE, MODE_LS_HOST); // start low-speed host
 8001158:	014032c4 	movi	r5,203
 800115c:	01003604 	movi	r4,216
 8001160:	8000c980 	call	8000c98 <MAXreg_wr>
        printf("Starting in low speed\n");
 8001164:	010200b4 	movhi	r4,2050
 8001168:	21206e04 	addi	r4,r4,-32328
 800116c:	80082f00 	call	80082f0 <puts>
 8001170:	00000606 	br	800118c <MAX_busprobe+0x118>
      } else {
        MAXreg_wr(rMODE, MODE_FS_HOST); // start full-speed host
 8001174:	01403244 	movi	r5,201
 8001178:	01003604 	movi	r4,216
 800117c:	8000c980 	call	8000c98 <MAXreg_wr>
        printf("Starting in full speed\n");
 8001180:	010200b4 	movhi	r4,2050
 8001184:	21206804 	addi	r4,r4,-32352
 8001188:	80082f00 	call	80082f0 <puts>
      }
      usb_task_state = (USB_STATE_ATTACHED); // signal usb state machine to
 800118c:	00800404 	movi	r2,16
 8001190:	d0a00205 	stb	r2,-32760(gp)
                                             // start attachment sequence
    }
    break;
 8001194:	00001206 	br	80011e0 <MAX_busprobe+0x16c>
  case (bmSE1): // illegal state
    usb_task_state = (USB_DETACHED_SUBSTATE_ILLEGAL);
 8001198:	00800104 	movi	r2,4
 800119c:	d0a00205 	stb	r2,-32760(gp)
    break;
 80011a0:	00001006 	br	80011e4 <MAX_busprobe+0x170>
  case (bmSE0): // disconnected state
    if (!((usb_task_state & USB_STATE_MASK) ==
 80011a4:	d0a00203 	ldbu	r2,-32760(gp)
 80011a8:	10803fcc 	andi	r2,r2,255
 80011ac:	10803c0c 	andi	r2,r2,240
 80011b0:	10000326 	beq	r2,zero,80011c0 <MAX_busprobe+0x14c>
          USB_STATE_DETACHED)) // if we came here from other than detached state
      usb_task_state =
 80011b4:	00800044 	movi	r2,1
 80011b8:	d0a00205 	stb	r2,-32760(gp)
          (USB_DETACHED_SUBSTATE_INITIALIZE); // clear device data structures
    else {
      MAXreg_wr(rMODE, MODE_FS_HOST); // start full-speed host
      usb_task_state = (USB_DETACHED_SUBSTATE_WAIT_FOR_DEVICE);
    }
    break;
 80011bc:	00000906 	br	80011e4 <MAX_busprobe+0x170>
    if (!((usb_task_state & USB_STATE_MASK) ==
          USB_STATE_DETACHED)) // if we came here from other than detached state
      usb_task_state =
          (USB_DETACHED_SUBSTATE_INITIALIZE); // clear device data structures
    else {
      MAXreg_wr(rMODE, MODE_FS_HOST); // start full-speed host
 80011c0:	01403244 	movi	r5,201
 80011c4:	01003604 	movi	r4,216
 80011c8:	8000c980 	call	8000c98 <MAXreg_wr>
      usb_task_state = (USB_DETACHED_SUBSTATE_WAIT_FOR_DEVICE);
 80011cc:	008000c4 	movi	r2,3
 80011d0:	d0a00205 	stb	r2,-32760(gp)
    }
    break;
 80011d4:	00000306 	br	80011e4 <MAX_busprobe+0x170>
        printf("Starting in low speed\n");
      }
      usb_task_state = (USB_STATE_ATTACHED); // signal usb state machine to
                                             // start attachment sequence
    }
    break;
 80011d8:	0001883a 	nop
 80011dc:	00000106 	br	80011e4 <MAX_busprobe+0x170>
        printf("Starting in full speed\n");
      }
      usb_task_state = (USB_STATE_ATTACHED); // signal usb state machine to
                                             // start attachment sequence
    }
    break;
 80011e0:	0001883a 	nop
      MAXreg_wr(rMODE, MODE_FS_HOST); // start full-speed host
      usb_task_state = (USB_DETACHED_SUBSTATE_WAIT_FOR_DEVICE);
    }
    break;
  } // end switch( bus_sample )
}
 80011e4:	0001883a 	nop
 80011e8:	e037883a 	mov	sp,fp
 80011ec:	dfc00117 	ldw	ra,4(sp)
 80011f0:	df000017 	ldw	fp,0(sp)
 80011f4:	dec00204 	addi	sp,sp,8
 80011f8:	f800283a 	ret

080011fc <MAX3421E_init>:
/* MAX3421E initialization after power-on   */
void MAX3421E_init(void) {
 80011fc:	defffe04 	addi	sp,sp,-8
 8001200:	dfc00115 	stw	ra,4(sp)
 8001204:	df000015 	stw	fp,0(sp)
 8001208:	d839883a 	mov	fp,sp
  /* Configure full-duplex SPI, interrupt pulse   */
  MAXreg_wr(rPINCTL, (bmFDUPSPI + bmINTLEVEL +
 800120c:	01400684 	movi	r5,26
 8001210:	01002204 	movi	r4,136
 8001214:	8000c980 	call	8000c98 <MAXreg_wr>
                      bmGPXB)); // Full-duplex SPI, level interrupt, GPX
  MAX3421E_reset();             // stop/start the oscillator
 8001218:	8000fa80 	call	8000fa8 <MAX3421E_reset>
  /* configure power switch   */
  Vbus_power(OFF); // turn Vbus power off
 800121c:	0009883a 	mov	r4,zero
 8001220:	80010500 	call	8001050 <Vbus_power>
  MAXreg_wr(
 8001224:	01402004 	movi	r5,128
 8001228:	01002e04 	movi	r4,184
 800122c:	8000c980 	call	8000c98 <MAXreg_wr>
      rGPINIEN,
      bmGPINIEN7); // enable interrupt on GPIN7 (power switch overload flag)
  Vbus_power(ON);
 8001230:	01000044 	movi	r4,1
 8001234:	80010500 	call	8001050 <Vbus_power>
  /* configure host operation */
  MAXreg_wr(
 8001238:	01403444 	movi	r5,209
 800123c:	01003604 	movi	r4,216
 8001240:	8000c980 	call	8000c98 <MAXreg_wr>
      rMODE,
      bmDPPULLDN | bmDMPULLDN | bmHOST |
          bmSEPIRQ); // set pull-downs, SOF, Host, Separate GPIN IRQ on GPX
  // MAXreg_wr( rHIEN, bmFRAMEIE|bmCONDETIE|bmBUSEVENTIE ); // enable SOF,
  // connection detection, bus event IRQs
  MAXreg_wr(rHIEN, bmCONDETIE); // connection detection
 8001244:	01400804 	movi	r5,32
 8001248:	01003404 	movi	r4,208
 800124c:	8000c980 	call	8000c98 <MAXreg_wr>
  /* HXFRDNIRQ is checked in Dispatch packet function */
  MAXreg_wr(rHCTL, bmSAMPLEBUS); // update the JSTATUS and KSTATUS bits
 8001250:	01400104 	movi	r5,4
 8001254:	01003a04 	movi	r4,232
 8001258:	8000c980 	call	8000c98 <MAXreg_wr>
  MAX_busprobe();                // check if anything is connected
 800125c:	80010740 	call	8001074 <MAX_busprobe>
  MAXreg_wr(rHIRQ, bmCONDETIRQ); // clear connection detect interrupt
 8001260:	01400804 	movi	r5,32
 8001264:	01003204 	movi	r4,200
 8001268:	8000c980 	call	8000c98 <MAXreg_wr>
  MAXreg_wr(rCPUCTL, 0x01);      // enable interrupt pin
 800126c:	01400044 	movi	r5,1
 8001270:	01002004 	movi	r4,128
 8001274:	8000c980 	call	8000c98 <MAXreg_wr>
}
 8001278:	0001883a 	nop
 800127c:	e037883a 	mov	sp,fp
 8001280:	dfc00117 	ldw	ra,4(sp)
 8001284:	df000017 	ldw	fp,0(sp)
 8001288:	dec00204 	addi	sp,sp,8
 800128c:	f800283a 	ret

08001290 <MAX3421E_Task>:

/* MAX3421 state change task and interrupt handler */
void MAX3421E_Task(void) {
 8001290:	defffe04 	addi	sp,sp,-8
 8001294:	dfc00115 	stw	ra,4(sp)
 8001298:	df000015 	stw	fp,0(sp)
 800129c:	d839883a 	mov	fp,sp
  if (IORD_ALTERA_AVALON_PIO_DATA(USB_IRQ_BASE) == 0) {
 80012a0:	00800074 	movhi	r2,1
 80012a4:	10845c04 	addi	r2,r2,4464
 80012a8:	10800037 	ldwio	r2,0(r2)
 80012ac:	1000041e 	bne	r2,zero,80012c0 <MAX3421E_Task+0x30>
    printf("MAX interrupt\n\r");
 80012b0:	010200b4 	movhi	r4,2050
 80012b4:	21207404 	addi	r4,r4,-32304
 80012b8:	80081d40 	call	80081d4 <printf>
    MaxIntHandler();
 80012bc:	80012fc0 	call	80012fc <MaxIntHandler>
  }
  if (IORD_ALTERA_AVALON_PIO_DATA(USB_GPX_BASE) == 1) {
 80012c0:	00800074 	movhi	r2,1
 80012c4:	10845804 	addi	r2,r2,4448
 80012c8:	10800037 	ldwio	r2,0(r2)
 80012cc:	10800058 	cmpnei	r2,r2,1
 80012d0:	1000041e 	bne	r2,zero,80012e4 <MAX3421E_Task+0x54>
    printf("GPX interrupt\n\r");
 80012d4:	010200b4 	movhi	r4,2050
 80012d8:	21207804 	addi	r4,r4,-32288
 80012dc:	80081d40 	call	80081d4 <printf>
    MaxGpxHandler();
 80012e0:	80013c80 	call	80013c8 <MaxGpxHandler>
  }
}
 80012e4:	0001883a 	nop
 80012e8:	e037883a 	mov	sp,fp
 80012ec:	dfc00117 	ldw	ra,4(sp)
 80012f0:	df000017 	ldw	fp,0(sp)
 80012f4:	dec00204 	addi	sp,sp,8
 80012f8:	f800283a 	ret

080012fc <MaxIntHandler>:

void MaxIntHandler(void) {
 80012fc:	defffd04 	addi	sp,sp,-12
 8001300:	dfc00215 	stw	ra,8(sp)
 8001304:	df000115 	stw	fp,4(sp)
 8001308:	df000104 	addi	fp,sp,4
  BYTE HIRQ;
  BYTE HIRQ_sendback = 0x00;
 800130c:	e03fff05 	stb	zero,-4(fp)
  HIRQ = MAXreg_rd(rHIRQ); // determine interrupt source
 8001310:	01003204 	movi	r4,200
 8001314:	8000e940 	call	8000e94 <MAXreg_rd>
 8001318:	e0bfff45 	stb	r2,-3(fp)
  printf("IRQ: %x\n", HIRQ);
 800131c:	e0bfff43 	ldbu	r2,-3(fp)
 8001320:	100b883a 	mov	r5,r2
 8001324:	010200b4 	movhi	r4,2050
 8001328:	21207c04 	addi	r4,r4,-32272
 800132c:	80081d40 	call	80081d4 <printf>
  if (HIRQ & bmFRAMEIRQ) { //->1ms SOF interrupt handler
 8001330:	e0bfff43 	ldbu	r2,-3(fp)
 8001334:	1080100c 	andi	r2,r2,64
 8001338:	10000326 	beq	r2,zero,8001348 <MaxIntHandler+0x4c>
    HIRQ_sendback |= bmFRAMEIRQ;
 800133c:	e0bfff03 	ldbu	r2,-4(fp)
 8001340:	10801014 	ori	r2,r2,64
 8001344:	e0bfff05 	stb	r2,-4(fp)
  } // end FRAMEIRQ handling

  if (HIRQ & bmCONDETIRQ) {
 8001348:	e0bfff43 	ldbu	r2,-3(fp)
 800134c:	1080080c 	andi	r2,r2,32
 8001350:	10000426 	beq	r2,zero,8001364 <MaxIntHandler+0x68>
    MAX_busprobe();
 8001354:	80010740 	call	8001074 <MAX_busprobe>
    HIRQ_sendback |= bmCONDETIRQ; // set sendback to 1 to clear register
 8001358:	e0bfff03 	ldbu	r2,-4(fp)
 800135c:	10800814 	ori	r2,r2,32
 8001360:	e0bfff05 	stb	r2,-4(fp)
  }
  if (HIRQ & bmSNDBAVIRQ) // if the send buffer is clear (previous transfer
 8001364:	e0bfff43 	ldbu	r2,-3(fp)
 8001368:	1080020c 	andi	r2,r2,8
 800136c:	10000326 	beq	r2,zero,800137c <MaxIntHandler+0x80>
                          // completed without issue)
  {
    MAXreg_wr(rSNDBC, 0x00); // clear the send buffer (not really necessary, but
 8001370:	000b883a 	mov	r5,zero
 8001374:	01000e04 	movi	r4,56
 8001378:	8000c980 	call	8000c98 <MAXreg_wr>
                             // clears interrupt)
  }
  if (HIRQ & bmBUSEVENTIRQ) { // bus event is either reset or suspend
 800137c:	e0bfff43 	ldbu	r2,-3(fp)
 8001380:	1080004c 	andi	r2,r2,1
 8001384:	10000626 	beq	r2,zero,80013a0 <MaxIntHandler+0xa4>
    usb_task_state++;         // advance USB task state machine
 8001388:	d0a00203 	ldbu	r2,-32760(gp)
 800138c:	10800044 	addi	r2,r2,1
 8001390:	d0a00205 	stb	r2,-32760(gp)
    HIRQ_sendback |= bmBUSEVENTIRQ;
 8001394:	e0bfff03 	ldbu	r2,-4(fp)
 8001398:	10800054 	ori	r2,r2,1
 800139c:	e0bfff05 	stb	r2,-4(fp)
  }
  /* End HIRQ interrupts handling, clear serviced IRQs    */
  MAXreg_wr(rHIRQ,
 80013a0:	e0bfff03 	ldbu	r2,-4(fp)
 80013a4:	100b883a 	mov	r5,r2
 80013a8:	01003204 	movi	r4,200
 80013ac:	8000c980 	call	8000c98 <MAXreg_wr>
            HIRQ_sendback); // write '1' to CONDETIRQ to ack bus state change
}
 80013b0:	0001883a 	nop
 80013b4:	e037883a 	mov	sp,fp
 80013b8:	dfc00117 	ldw	ra,4(sp)
 80013bc:	df000017 	ldw	fp,0(sp)
 80013c0:	dec00204 	addi	sp,sp,8
 80013c4:	f800283a 	ret

080013c8 <MaxGpxHandler>:

void MaxGpxHandler(void) {
 80013c8:	defffd04 	addi	sp,sp,-12
 80013cc:	dfc00215 	stw	ra,8(sp)
 80013d0:	df000115 	stw	fp,4(sp)
 80013d4:	df000104 	addi	fp,sp,4
  BYTE GPINIRQ;
  GPINIRQ = MAXreg_rd(rGPINIRQ); // read both IRQ registers
 80013d8:	01002c04 	movi	r4,176
 80013dc:	8000e940 	call	8000e94 <MAXreg_rd>
 80013e0:	e0bfff05 	stb	r2,-4(fp)
}
 80013e4:	0001883a 	nop
 80013e8:	e037883a 	mov	sp,fp
 80013ec:	dfc00117 	ldw	ra,4(sp)
 80013f0:	df000017 	ldw	fp,0(sp)
 80013f4:	dec00204 	addi	sp,sp,8
 80013f8:	f800283a 	ret

080013fc <XferCtrlReq>:
/* depending on request. Actual requests are defined as macros */
/* return codes:                */
/* 00       =   success         */
/* 01-0f    =   non-zero HRSLT  */
BYTE XferCtrlReq(BYTE addr, BYTE ep, BYTE bmReqType, BYTE bRequest, BYTE wValLo,
                 BYTE wValHi, WORD wInd, WORD nbytes, BYTE *dataptr) {
 80013fc:	defff104 	addi	sp,sp,-60
 8001400:	dfc00e15 	stw	ra,56(sp)
 8001404:	df000d15 	stw	fp,52(sp)
 8001408:	df000d04 	addi	fp,sp,52
 800140c:	2015883a 	mov	r10,r4
 8001410:	2813883a 	mov	r9,r5
 8001414:	3011883a 	mov	r8,r6
 8001418:	380d883a 	mov	r6,r7
 800141c:	e1400217 	ldw	r5,8(fp)
 8001420:	e1000317 	ldw	r4,12(fp)
 8001424:	e0c00417 	ldw	r3,16(fp)
 8001428:	e0800517 	ldw	r2,20(fp)
 800142c:	e2bff805 	stb	r10,-32(fp)
 8001430:	e27ff905 	stb	r9,-28(fp)
 8001434:	e23ffa05 	stb	r8,-24(fp)
 8001438:	e1bffb05 	stb	r6,-20(fp)
 800143c:	e17ffc05 	stb	r5,-16(fp)
 8001440:	e13ffd05 	stb	r4,-12(fp)
 8001444:	e0fffe0d 	sth	r3,-8(fp)
 8001448:	e0bfff0d 	sth	r2,-4(fp)
  BOOL direction = FALSE; // request direction, IN or OUT
 800144c:	e03ff415 	stw	zero,-48(fp)
  BYTE datastage = 1;     // request data stage present or absent
 8001450:	00800044 	movi	r2,1
 8001454:	e0bff505 	stb	r2,-44(fp)
  BYTE rcode;
  SETUP_PKT setup_pkt;
  if (dataptr == NULL) {
 8001458:	e0800617 	ldw	r2,24(fp)
 800145c:	1000011e 	bne	r2,zero,8001464 <XferCtrlReq+0x68>
    datastage = 0;
 8001460:	e03ff505 	stb	zero,-44(fp)
  }
  MAXreg_wr(rPERADDR, addr); // set peripheral address
 8001464:	e0bff803 	ldbu	r2,-32(fp)
 8001468:	100b883a 	mov	r5,r2
 800146c:	01003804 	movi	r4,224
 8001470:	8000c980 	call	8000c98 <MAXreg_wr>
  /* fill in setup packet */
  if (bmReqType & 0x80) {
 8001474:	e0bffa03 	ldbu	r2,-24(fp)
 8001478:	10803fcc 	andi	r2,r2,255
 800147c:	1080201c 	xori	r2,r2,128
 8001480:	10bfe004 	addi	r2,r2,-128
 8001484:	1000020e 	bge	r2,zero,8001490 <XferCtrlReq+0x94>
    direction = TRUE; // determine request direction
 8001488:	00800044 	movi	r2,1
 800148c:	e0bff415 	stw	r2,-48(fp)
  }
  /* fill in setup packet */
  setup_pkt.ReqType_u.bmRequestType = bmReqType;
 8001490:	e0bffa03 	ldbu	r2,-24(fp)
 8001494:	e0bff585 	stb	r2,-42(fp)
  setup_pkt.bRequest = bRequest;
 8001498:	e0bffb03 	ldbu	r2,-20(fp)
 800149c:	e0bff5c5 	stb	r2,-41(fp)
  setup_pkt.wVal_u.wValueLo = wValLo;
 80014a0:	e0bffc03 	ldbu	r2,-16(fp)
 80014a4:	e0bff605 	stb	r2,-40(fp)
  setup_pkt.wVal_u.wValueHi = wValHi;
 80014a8:	e0bffd03 	ldbu	r2,-12(fp)
 80014ac:	e0bff645 	stb	r2,-39(fp)
  setup_pkt.wIndex = wInd;
 80014b0:	e0bffe0b 	ldhu	r2,-8(fp)
 80014b4:	e0bff68d 	sth	r2,-38(fp)
  setup_pkt.wLength = nbytes;
 80014b8:	e0bfff0b 	ldhu	r2,-4(fp)
 80014bc:	e0bff70d 	sth	r2,-36(fp)
  MAXbytes_wr(rSUDFIFO, 8, (BYTE *)&setup_pkt); // transfer to setup packet FIFO
 80014c0:	e0bff584 	addi	r2,fp,-42
 80014c4:	100d883a 	mov	r6,r2
 80014c8:	01400204 	movi	r5,8
 80014cc:	01000804 	movi	r4,32
 80014d0:	8000d240 	call	8000d24 <MAXbytes_wr>
  rcode = XferDispatchPkt(tokSETUP, ep);        // dispatch packet
 80014d4:	e0bff903 	ldbu	r2,-28(fp)
 80014d8:	100b883a 	mov	r5,r2
 80014dc:	01000404 	movi	r4,16
 80014e0:	80016a40 	call	80016a4 <XferDispatchPkt>
 80014e4:	e0bff545 	stb	r2,-43(fp)
  if (rcode) {                                  // return HRSLT if not zero
 80014e8:	e0bff543 	ldbu	r2,-43(fp)
 80014ec:	10000226 	beq	r2,zero,80014f8 <XferCtrlReq+0xfc>
    return (rcode);
 80014f0:	e0bff543 	ldbu	r2,-43(fp)
 80014f4:	00000f06 	br	8001534 <XferCtrlReq+0x138>
  }
  rcode = ctrl_xfers[datastage](
 80014f8:	e0bff503 	ldbu	r2,-44(fp)
 80014fc:	1085883a 	add	r2,r2,r2
 8001500:	1087883a 	add	r3,r2,r2
 8001504:	d0a00004 	addi	r2,gp,-32768
 8001508:	1885883a 	add	r2,r3,r2
 800150c:	10800017 	ldw	r2,0(r2)
 8001510:	e13ff803 	ldbu	r4,-32(fp)
 8001514:	e17ff903 	ldbu	r5,-28(fp)
 8001518:	e1bfff0b 	ldhu	r6,-4(fp)
 800151c:	e0fff417 	ldw	r3,-48(fp)
 8001520:	d8c00015 	stw	r3,0(sp)
 8001524:	e1c00617 	ldw	r7,24(fp)
 8001528:	103ee83a 	callr	r2
 800152c:	e0bff545 	stb	r2,-43(fp)
      addr, ep, nbytes, dataptr,
      direction); // call data stage or no data stage transfer
  return (rcode);
 8001530:	e0bff543 	ldbu	r2,-43(fp)
}
 8001534:	e037883a 	mov	sp,fp
 8001538:	dfc00117 	ldw	ra,4(sp)
 800153c:	df000017 	ldw	fp,0(sp)
 8001540:	dec00204 	addi	sp,sp,8
 8001544:	f800283a 	ret

08001548 <XferCtrlData>:
/* Control transfer with data stage */
BYTE XferCtrlData(BYTE addr, BYTE ep, WORD nbytes, BYTE *dataptr,
                  BOOL direction) {
 8001548:	defff804 	addi	sp,sp,-32
 800154c:	dfc00715 	stw	ra,28(sp)
 8001550:	df000615 	stw	fp,24(sp)
 8001554:	df000604 	addi	fp,sp,24
 8001558:	2807883a 	mov	r3,r5
 800155c:	3005883a 	mov	r2,r6
 8001560:	e1ffff15 	stw	r7,-4(fp)
 8001564:	e13ffc05 	stb	r4,-16(fp)
 8001568:	e0fffd05 	stb	r3,-12(fp)
 800156c:	e0bffe0d 	sth	r2,-8(fp)
  BYTE rcode;

  // MAXreg_wr( rHCTL, bmRCVTOG1 );       //set toggle to DATA1
  if (direction) { // IN transfer
 8001570:	e0800217 	ldw	r2,8(fp)
 8001574:	10002826 	beq	r2,zero,8001618 <XferCtrlData+0xd0>
    devtable[addr].epinfo[ep].rcvToggle = bmRCVTOG1;
 8001578:	e0fffc03 	ldbu	r3,-16(fp)
 800157c:	008200b4 	movhi	r2,2050
 8001580:	10b10404 	addi	r2,r2,-15344
 8001584:	180690fa 	slli	r3,r3,3
 8001588:	10c5883a 	add	r2,r2,r3
 800158c:	10c00017 	ldw	r3,0(r2)
 8001590:	e0bffd03 	ldbu	r2,-12(fp)
 8001594:	100490fa 	slli	r2,r2,3
 8001598:	1885883a 	add	r2,r3,r2
 800159c:	00c00804 	movi	r3,32
 80015a0:	10c00185 	stb	r3,6(r2)
    rcode = XferInTransfer(addr, ep, nbytes, dataptr,
 80015a4:	e13ffc03 	ldbu	r4,-16(fp)
 80015a8:	e17ffd03 	ldbu	r5,-12(fp)
 80015ac:	e1bffe0b 	ldhu	r6,-8(fp)
                           devtable[addr].epinfo[ep].MaxPktSize);
 80015b0:	e0fffc03 	ldbu	r3,-16(fp)
 80015b4:	008200b4 	movhi	r2,2050
 80015b8:	10b10404 	addi	r2,r2,-15344
 80015bc:	180690fa 	slli	r3,r3,3
 80015c0:	10c5883a 	add	r2,r2,r3
 80015c4:	10c00017 	ldw	r3,0(r2)
 80015c8:	e0bffd03 	ldbu	r2,-12(fp)
 80015cc:	100490fa 	slli	r2,r2,3
 80015d0:	1885883a 	add	r2,r3,r2
 80015d4:	1080008b 	ldhu	r2,2(r2)
  BYTE rcode;

  // MAXreg_wr( rHCTL, bmRCVTOG1 );       //set toggle to DATA1
  if (direction) { // IN transfer
    devtable[addr].epinfo[ep].rcvToggle = bmRCVTOG1;
    rcode = XferInTransfer(addr, ep, nbytes, dataptr,
 80015d8:	10803fcc 	andi	r2,r2,255
 80015dc:	d8800015 	stw	r2,0(sp)
 80015e0:	e1ffff17 	ldw	r7,-4(fp)
 80015e4:	80018200 	call	8001820 <XferInTransfer>
 80015e8:	e0bffb05 	stb	r2,-20(fp)
                           devtable[addr].epinfo[ep].MaxPktSize);
    if (rcode) {
 80015ec:	e0bffb03 	ldbu	r2,-20(fp)
 80015f0:	10000226 	beq	r2,zero,80015fc <XferCtrlData+0xb4>
      return (rcode);
 80015f4:	e0bffb03 	ldbu	r2,-20(fp)
 80015f8:	00000806 	br	800161c <XferCtrlData+0xd4>
    }
    rcode = XferDispatchPkt(tokOUTHS, ep);
 80015fc:	e0bffd03 	ldbu	r2,-12(fp)
 8001600:	100b883a 	mov	r5,r2
 8001604:	01002804 	movi	r4,160
 8001608:	80016a40 	call	80016a4 <XferDispatchPkt>
 800160c:	e0bffb05 	stb	r2,-20(fp)
    return (rcode);
 8001610:	e0bffb03 	ldbu	r2,-20(fp)
 8001614:	00000106 	br	800161c <XferCtrlData+0xd4>
  } else { // OUT not implemented
    return (0xff);
 8001618:	00bfffc4 	movi	r2,-1
  }
}
 800161c:	e037883a 	mov	sp,fp
 8001620:	dfc00117 	ldw	ra,4(sp)
 8001624:	df000017 	ldw	fp,0(sp)
 8001628:	dec00204 	addi	sp,sp,8
 800162c:	f800283a 	ret

08001630 <XferCtrlND>:
/* Control transfer with status stage and no data stage */
BYTE XferCtrlND(BYTE addr, BYTE ep, WORD nbytes, BYTE *dataptr,
                BOOL direction) {
 8001630:	defff904 	addi	sp,sp,-28
 8001634:	dfc00615 	stw	ra,24(sp)
 8001638:	df000515 	stw	fp,20(sp)
 800163c:	df000504 	addi	fp,sp,20
 8001640:	2807883a 	mov	r3,r5
 8001644:	3005883a 	mov	r2,r6
 8001648:	e1ffff15 	stw	r7,-4(fp)
 800164c:	e13ffc05 	stb	r4,-16(fp)
 8001650:	e0fffd05 	stb	r3,-12(fp)
 8001654:	e0bffe0d 	sth	r2,-8(fp)
  BYTE rcode;
  if (direction) { // GET
 8001658:	e0800217 	ldw	r2,8(fp)
 800165c:	10000626 	beq	r2,zero,8001678 <XferCtrlND+0x48>
    rcode = XferDispatchPkt(tokOUTHS, ep);
 8001660:	e0bffd03 	ldbu	r2,-12(fp)
 8001664:	100b883a 	mov	r5,r2
 8001668:	01002804 	movi	r4,160
 800166c:	80016a40 	call	80016a4 <XferDispatchPkt>
 8001670:	e0bffb05 	stb	r2,-20(fp)
 8001674:	00000506 	br	800168c <XferCtrlND+0x5c>
  } else {
    rcode = XferDispatchPkt(tokINHS, ep);
 8001678:	e0bffd03 	ldbu	r2,-12(fp)
 800167c:	100b883a 	mov	r5,r2
 8001680:	01002004 	movi	r4,128
 8001684:	80016a40 	call	80016a4 <XferDispatchPkt>
 8001688:	e0bffb05 	stb	r2,-20(fp)
  }
  return (rcode);
 800168c:	e0bffb03 	ldbu	r2,-20(fp)
}
 8001690:	e037883a 	mov	sp,fp
 8001694:	dfc00117 	ldw	ra,4(sp)
 8001698:	df000017 	ldw	fp,0(sp)
 800169c:	dec00204 	addi	sp,sp,8
 80016a0:	f800283a 	ret

080016a4 <XferDispatchPkt>:
 * sudFIFO-sendFIFO loaded. */
/* Result code: 0 success, nonzero = error condition */
/* If NAK, tries to re-send up to USB_NAK_LIMIT times */
/* If bus timeout, re-sends up to USB_RETRY_LIMIT times */
/* return codes 0x00-0x0f are HRSLT( 0x00 being success ), 0xff means timeout */
BYTE XferDispatchPkt(BYTE token, BYTE ep) {
 80016a4:	defff904 	addi	sp,sp,-28
 80016a8:	dfc00615 	stw	ra,24(sp)
 80016ac:	df000515 	stw	fp,20(sp)
 80016b0:	df000504 	addi	fp,sp,20
 80016b4:	2007883a 	mov	r3,r4
 80016b8:	2805883a 	mov	r2,r5
 80016bc:	e0fffe05 	stb	r3,-8(fp)
 80016c0:	e0bfff05 	stb	r2,-4(fp)
 * alt_nticks() returns the elapsed number of system clock ticks since reset.
 */

static ALT_INLINE alt_u32 ALT_ALWAYS_INLINE alt_nticks (void)
{
  return _alt_nticks;
 80016c4:	d0a73c17 	ldw	r2,-25360(gp)
  DWORD timeout =
      (alt_nticks() * 1000) / alt_ticks_per_second() + USB_XFER_TIMEOUT;
 80016c8:	0140fa04 	movi	r5,1000
 80016cc:	1009883a 	mov	r4,r2
 80016d0:	8007dd80 	call	8007dd8 <__mulsi3>
 80016d4:	1007883a 	mov	r3,r2
 * Obtain the system clock rate in ticks/s. 
 */

static ALT_INLINE alt_u32 ALT_ALWAYS_INLINE alt_ticks_per_second (void)
{
  return _alt_tick_rate;
 80016d8:	d0a73b17 	ldw	r2,-25364(gp)
 80016dc:	100b883a 	mov	r5,r2
 80016e0:	1809883a 	mov	r4,r3
 80016e4:	8007d1c0 	call	8007d1c <__udivsi3>
/* Result code: 0 success, nonzero = error condition */
/* If NAK, tries to re-send up to USB_NAK_LIMIT times */
/* If bus timeout, re-sends up to USB_RETRY_LIMIT times */
/* return codes 0x00-0x0f are HRSLT( 0x00 being success ), 0xff means timeout */
BYTE XferDispatchPkt(BYTE token, BYTE ep) {
  DWORD timeout =
 80016e8:	1084e204 	addi	r2,r2,5000
 80016ec:	e0bffc15 	stw	r2,-16(fp)
      (alt_nticks() * 1000) / alt_ticks_per_second() + USB_XFER_TIMEOUT;
  BYTE tmpdata;
  BYTE rcode;
  char retry_count = 0;
 80016f0:	e03ffb45 	stb	zero,-19(fp)
  BYTE nak_count = 0;
 80016f4:	e03ffb85 	stb	zero,-18(fp)

  while (1) {
    MAXreg_wr(rHXFR, (token | ep)); // launch the transfer
 80016f8:	e0fffe03 	ldbu	r3,-8(fp)
 80016fc:	e0bfff03 	ldbu	r2,-4(fp)
 8001700:	1884b03a 	or	r2,r3,r2
 8001704:	10803fcc 	andi	r2,r2,255
 8001708:	100b883a 	mov	r5,r2
 800170c:	01003c04 	movi	r4,240
 8001710:	8000c980 	call	8000c98 <MAXreg_wr>
    rcode = 0xff;
 8001714:	00bfffc4 	movi	r2,-1
 8001718:	e0bffb05 	stb	r2,-20(fp)
    while ((alt_nticks() * 1000) / alt_ticks_per_second() < timeout) {
 800171c:	00000d06 	br	8001754 <XferDispatchPkt+0xb0>
      tmpdata = MAXreg_rd(rHIRQ);
 8001720:	01003204 	movi	r4,200
 8001724:	8000e940 	call	8000e94 <MAXreg_rd>
 8001728:	e0bffd05 	stb	r2,-12(fp)
      if (tmpdata & bmHXFRDNIRQ) {
 800172c:	e0bffd03 	ldbu	r2,-12(fp)
 8001730:	10803fcc 	andi	r2,r2,255
 8001734:	1080201c 	xori	r2,r2,128
 8001738:	10bfe004 	addi	r2,r2,-128
 800173c:	1000050e 	bge	r2,zero,8001754 <XferDispatchPkt+0xb0>
        MAXreg_wr(rHIRQ, bmHXFRDNIRQ); // clear the interrupt
 8001740:	01402004 	movi	r5,128
 8001744:	01003204 	movi	r4,200
 8001748:	8000c980 	call	8000c98 <MAXreg_wr>
        rcode = 0x00;
 800174c:	e03ffb05 	stb	zero,-20(fp)
        break;
 8001750:	00000c06 	br	8001784 <XferDispatchPkt+0xe0>
 * alt_nticks() returns the elapsed number of system clock ticks since reset.
 */

static ALT_INLINE alt_u32 ALT_ALWAYS_INLINE alt_nticks (void)
{
  return _alt_nticks;
 8001754:	d0a73c17 	ldw	r2,-25360(gp)
  BYTE nak_count = 0;

  while (1) {
    MAXreg_wr(rHXFR, (token | ep)); // launch the transfer
    rcode = 0xff;
    while ((alt_nticks() * 1000) / alt_ticks_per_second() < timeout) {
 8001758:	0140fa04 	movi	r5,1000
 800175c:	1009883a 	mov	r4,r2
 8001760:	8007dd80 	call	8007dd8 <__mulsi3>
 8001764:	1007883a 	mov	r3,r2
 * Obtain the system clock rate in ticks/s. 
 */

static ALT_INLINE alt_u32 ALT_ALWAYS_INLINE alt_ticks_per_second (void)
{
  return _alt_tick_rate;
 8001768:	d0a73b17 	ldw	r2,-25364(gp)
 800176c:	100b883a 	mov	r5,r2
 8001770:	1809883a 	mov	r4,r3
 8001774:	8007d1c0 	call	8007d1c <__udivsi3>
 8001778:	1007883a 	mov	r3,r2
 800177c:	e0bffc17 	ldw	r2,-16(fp)
 8001780:	18bfe736 	bltu	r3,r2,8001720 <XferDispatchPkt+0x7c>
        MAXreg_wr(rHIRQ, bmHXFRDNIRQ); // clear the interrupt
        rcode = 0x00;
        break;
      }
    }
    if (rcode != 0x00) { // exit if timeout
 8001784:	e0bffb03 	ldbu	r2,-20(fp)
 8001788:	10000226 	beq	r2,zero,8001794 <XferDispatchPkt+0xf0>
      return (rcode);
 800178c:	e0bffb03 	ldbu	r2,-20(fp)
 8001790:	00001e06 	br	800180c <XferDispatchPkt+0x168>
    }
    rcode = (MAXreg_rd(rHRSL) & 0x0f);
 8001794:	01003e04 	movi	r4,248
 8001798:	8000e940 	call	8000e94 <MAXreg_rd>
 800179c:	108003cc 	andi	r2,r2,15
 80017a0:	e0bffb05 	stb	r2,-20(fp)
    if (rcode == hrNAK) {
 80017a4:	e0bffb03 	ldbu	r2,-20(fp)
 80017a8:	10800118 	cmpnei	r2,r2,4
 80017ac:	1000071e 	bne	r2,zero,80017cc <XferDispatchPkt+0x128>
      nak_count++;
 80017b0:	e0bffb83 	ldbu	r2,-18(fp)
 80017b4:	10800044 	addi	r2,r2,1
 80017b8:	e0bffb85 	stb	r2,-18(fp)
      if (nak_count == USB_NAK_LIMIT) {
 80017bc:	e0bffb83 	ldbu	r2,-18(fp)
 80017c0:	10803218 	cmpnei	r2,r2,200
 80017c4:	10000b1e 	bne	r2,zero,80017f4 <XferDispatchPkt+0x150>
        break;
 80017c8:	00000f06 	br	8001808 <XferDispatchPkt+0x164>
      } else {
        continue;
      }
    }
    if (rcode == hrTIMEOUT) {
 80017cc:	e0bffb03 	ldbu	r2,-20(fp)
 80017d0:	10800398 	cmpnei	r2,r2,14
 80017d4:	1000091e 	bne	r2,zero,80017fc <XferDispatchPkt+0x158>
      retry_count++;
 80017d8:	e0bffb43 	ldbu	r2,-19(fp)
 80017dc:	10800044 	addi	r2,r2,1
 80017e0:	e0bffb45 	stb	r2,-19(fp)
      if (retry_count == USB_RETRY_LIMIT) {
 80017e4:	e0bffb47 	ldb	r2,-19(fp)
 80017e8:	108000d8 	cmpnei	r2,r2,3
 80017ec:	10000526 	beq	r2,zero,8001804 <XferDispatchPkt+0x160>
        break;
      } else {
        continue;
 80017f0:	00000106 	br	80017f8 <XferDispatchPkt+0x154>
    if (rcode == hrNAK) {
      nak_count++;
      if (nak_count == USB_NAK_LIMIT) {
        break;
      } else {
        continue;
 80017f4:	0001883a 	nop
      } else {
        continue;
      }
    } else
      break;
  } // while( 1 )
 80017f8:	003fbf06 	br	80016f8 <XferDispatchPkt+0x54>
        break;
      } else {
        continue;
      }
    } else
      break;
 80017fc:	0001883a 	nop
 8001800:	00000106 	br	8001808 <XferDispatchPkt+0x164>
      }
    }
    if (rcode == hrTIMEOUT) {
      retry_count++;
      if (retry_count == USB_RETRY_LIMIT) {
        break;
 8001804:	0001883a 	nop
        continue;
      }
    } else
      break;
  } // while( 1 )
  return (rcode);
 8001808:	e0bffb03 	ldbu	r2,-20(fp)
}
 800180c:	e037883a 	mov	sp,fp
 8001810:	dfc00117 	ldw	ra,4(sp)
 8001814:	df000017 	ldw	fp,0(sp)
 8001818:	dec00204 	addi	sp,sp,8
 800181c:	f800283a 	ret

08001820 <XferInTransfer>:
   packets if necessary. Transfers 'nbytes' bytes. Keep sending INs and writes
   data to memory area pointed by 'data' */
/* rcode 0 if no errors. rcode 01-0f is relayed from prvXferDispatchPkt(). Rcode
   f0 means RCVDAVIRQ error, fe USB xfer timeout */
BYTE XferInTransfer(BYTE addr /* not sure if it's necessary */, BYTE ep,
                    WORD nbytes, BYTE *data, BYTE maxpktsize) {
 8001820:	defff804 	addi	sp,sp,-32
 8001824:	dfc00715 	stw	ra,28(sp)
 8001828:	df000615 	stw	fp,24(sp)
 800182c:	df000604 	addi	fp,sp,24
 8001830:	2011883a 	mov	r8,r4
 8001834:	2809883a 	mov	r4,r5
 8001838:	3007883a 	mov	r3,r6
 800183c:	e1fffe15 	stw	r7,-8(fp)
 8001840:	e0800217 	ldw	r2,8(fp)
 8001844:	e23ffb05 	stb	r8,-20(fp)
 8001848:	e13ffc05 	stb	r4,-16(fp)
 800184c:	e0fffd0d 	sth	r3,-12(fp)
 8001850:	e0bfff05 	stb	r2,-4(fp)
  BYTE rcode;
  BYTE i;
  BYTE tmpbyte;
  BYTE pktsize;
  WORD xfrlen = 0;
 8001854:	e03ffa0d 	sth	zero,-24(fp)
  MAXreg_wr(rHCTL, devtable[addr].epinfo[ep].rcvToggle); // set toggle value
 8001858:	e0fffb03 	ldbu	r3,-20(fp)
 800185c:	008200b4 	movhi	r2,2050
 8001860:	10b10404 	addi	r2,r2,-15344
 8001864:	180690fa 	slli	r3,r3,3
 8001868:	10c5883a 	add	r2,r2,r3
 800186c:	10c00017 	ldw	r3,0(r2)
 8001870:	e0bffc03 	ldbu	r2,-16(fp)
 8001874:	100490fa 	slli	r2,r2,3
 8001878:	1885883a 	add	r2,r3,r2
 800187c:	10800183 	ldbu	r2,6(r2)
 8001880:	10803fcc 	andi	r2,r2,255
 8001884:	100b883a 	mov	r5,r2
 8001888:	01003a04 	movi	r4,232
 800188c:	8000c980 	call	8000c98 <MAXreg_wr>
  while (1) { // use a 'return' to exit this loop
    rcode = XferDispatchPkt(
 8001890:	e0bffc03 	ldbu	r2,-16(fp)
 8001894:	100b883a 	mov	r5,r2
 8001898:	0009883a 	mov	r4,zero
 800189c:	80016a40 	call	80016a4 <XferDispatchPkt>
 80018a0:	e0bffa85 	stb	r2,-22(fp)
        tokIN, ep); // IN packet to EP-'endpoint'. Function takes care of NAKS.
    if (rcode) {
 80018a4:	e0bffa83 	ldbu	r2,-22(fp)
 80018a8:	10000226 	beq	r2,zero,80018b4 <XferInTransfer+0x94>
      return (rcode); // should be 0, indicating ACK. Else return error code.
 80018ac:	e0bffa83 	ldbu	r2,-22(fp)
 80018b0:	00003a06 	br	800199c <XferInTransfer+0x17c>
    }
    /* check for RCVDAVIRQ and generate error if not present */
    /* the only case when absence of RCVDAVIRQ makes sense is when toggle error
     * occurred. Need to add handling for that */
    if ((MAXreg_rd(rHIRQ) & bmRCVDAVIRQ) == 0) {
 80018b4:	01003204 	movi	r4,200
 80018b8:	8000e940 	call	8000e94 <MAXreg_rd>
 80018bc:	10803fcc 	andi	r2,r2,255
 80018c0:	1080010c 	andi	r2,r2,4
 80018c4:	1000021e 	bne	r2,zero,80018d0 <XferInTransfer+0xb0>
      return (0xf0); // receive error
 80018c8:	00bffc04 	movi	r2,-16
 80018cc:	00003306 	br	800199c <XferInTransfer+0x17c>
    }
    pktsize = MAXreg_rd(rRCVBC); // number of received bytes
 80018d0:	01000c04 	movi	r4,48
 80018d4:	8000e940 	call	8000e94 <MAXreg_rd>
 80018d8:	e0bffac5 	stb	r2,-21(fp)
    // printf ("pktsize: %d\n", pktsize);
    data = MAXbytes_rd(rRCVFIFO, pktsize, data);
 80018dc:	e0bffac3 	ldbu	r2,-21(fp)
 80018e0:	e1bffe17 	ldw	r6,-8(fp)
 80018e4:	100b883a 	mov	r5,r2
 80018e8:	01000204 	movi	r4,8
 80018ec:	8000f140 	call	8000f14 <MAXbytes_rd>
 80018f0:	e0bffe15 	stw	r2,-8(fp)
    MAXreg_wr(rHIRQ, bmRCVDAVIRQ); // Clear the IRQ & free the buffer
 80018f4:	01400104 	movi	r5,4
 80018f8:	01003204 	movi	r4,200
 80018fc:	8000c980 	call	8000c98 <MAXreg_wr>
    xfrlen += pktsize; // add this packet's byte count to total transfer length
 8001900:	e0fffac3 	ldbu	r3,-21(fp)
 8001904:	e0bffa0b 	ldhu	r2,-24(fp)
 8001908:	1885883a 	add	r2,r3,r2
 800190c:	e0bffa0d 	sth	r2,-24(fp)
    /* The transfer is complete under two conditions:           */
    /* 1. The device sent a short packet (L.T. maxPacketSize)   */
    /* 2. 'nbytes' have been transferred.                       */
    if ((pktsize < maxpktsize) ||
 8001910:	e0fffac3 	ldbu	r3,-21(fp)
 8001914:	e0bfff03 	ldbu	r2,-4(fp)
 8001918:	18800336 	bltu	r3,r2,8001928 <XferInTransfer+0x108>
 800191c:	e0fffa0b 	ldhu	r3,-24(fp)
 8001920:	e0bffd0b 	ldhu	r2,-12(fp)
 8001924:	18bfda36 	bltu	r3,r2,8001890 <XferInTransfer+0x70>
        (xfrlen >= nbytes)) { // have we transferred 'nbytes' bytes?
      if (MAXreg_rd(rHRSL) & bmRCVTOGRD) { // save toggle value
 8001928:	01003e04 	movi	r4,248
 800192c:	8000e940 	call	8000e94 <MAXreg_rd>
 8001930:	10803fcc 	andi	r2,r2,255
 8001934:	1080040c 	andi	r2,r2,16
 8001938:	10000c26 	beq	r2,zero,800196c <XferInTransfer+0x14c>
        devtable[addr].epinfo[ep].rcvToggle = bmRCVTOG1;
 800193c:	e0fffb03 	ldbu	r3,-20(fp)
 8001940:	008200b4 	movhi	r2,2050
 8001944:	10b10404 	addi	r2,r2,-15344
 8001948:	180690fa 	slli	r3,r3,3
 800194c:	10c5883a 	add	r2,r2,r3
 8001950:	10c00017 	ldw	r3,0(r2)
 8001954:	e0bffc03 	ldbu	r2,-16(fp)
 8001958:	100490fa 	slli	r2,r2,3
 800195c:	1885883a 	add	r2,r3,r2
 8001960:	00c00804 	movi	r3,32
 8001964:	10c00185 	stb	r3,6(r2)
 8001968:	00000b06 	br	8001998 <XferInTransfer+0x178>
      } else {
        devtable[addr].epinfo[ep].rcvToggle = bmRCVTOG0;
 800196c:	e0fffb03 	ldbu	r3,-20(fp)
 8001970:	008200b4 	movhi	r2,2050
 8001974:	10b10404 	addi	r2,r2,-15344
 8001978:	180690fa 	slli	r3,r3,3
 800197c:	10c5883a 	add	r2,r2,r3
 8001980:	10c00017 	ldw	r3,0(r2)
 8001984:	e0bffc03 	ldbu	r2,-16(fp)
 8001988:	100490fa 	slli	r2,r2,3
 800198c:	1885883a 	add	r2,r3,r2
 8001990:	00c00404 	movi	r3,16
 8001994:	10c00185 	stb	r3,6(r2)
      }
      return (0);
 8001998:	0005883a 	mov	r2,zero
    }
  } // while( 1 )
}
 800199c:	e037883a 	mov	sp,fp
 80019a0:	dfc00117 	ldw	ra,4(sp)
 80019a4:	df000017 	ldw	fp,0(sp)
 80019a8:	dec00204 	addi	sp,sp,8
 80019ac:	f800283a 	ret

080019b0 <USB_init>:
/* initialization of USB data structures */
void USB_init(void) {
 80019b0:	defffe04 	addi	sp,sp,-8
 80019b4:	df000115 	stw	fp,4(sp)
 80019b8:	df000104 	addi	fp,sp,4
  BYTE i;
  for (i = 0; i < (USB_NUMDEVICES + 1); i++) {
 80019bc:	e03fff05 	stb	zero,-4(fp)
 80019c0:	00001006 	br	8001a04 <USB_init+0x54>
    devtable[i].epinfo = NULL; // clear device table
 80019c4:	e0ffff03 	ldbu	r3,-4(fp)
 80019c8:	008200b4 	movhi	r2,2050
 80019cc:	10b10404 	addi	r2,r2,-15344
 80019d0:	180690fa 	slli	r3,r3,3
 80019d4:	10c5883a 	add	r2,r2,r3
 80019d8:	10000015 	stw	zero,0(r2)
    devtable[i].devclass = 0;
 80019dc:	e0ffff03 	ldbu	r3,-4(fp)
 80019e0:	008200b4 	movhi	r2,2050
 80019e4:	10b10404 	addi	r2,r2,-15344
 80019e8:	180690fa 	slli	r3,r3,3
 80019ec:	10c5883a 	add	r2,r2,r3
 80019f0:	10800104 	addi	r2,r2,4
 80019f4:	10000005 	stb	zero,0(r2)
  } // while( 1 )
}
/* initialization of USB data structures */
void USB_init(void) {
  BYTE i;
  for (i = 0; i < (USB_NUMDEVICES + 1); i++) {
 80019f8:	e0bfff03 	ldbu	r2,-4(fp)
 80019fc:	10800044 	addi	r2,r2,1
 8001a00:	e0bfff05 	stb	r2,-4(fp)
 8001a04:	e0bfff03 	ldbu	r2,-4(fp)
 8001a08:	10800270 	cmpltui	r2,r2,9
 8001a0c:	103fed1e 	bne	r2,zero,80019c4 <USB_init+0x14>
    devtable[i].epinfo = NULL; // clear device table
    devtable[i].devclass = 0;
  }
  devtable[0].epinfo = &dev0ep; // set single ep for uninitialized device
 8001a10:	008200b4 	movhi	r2,2050
 8001a14:	10b10404 	addi	r2,r2,-15344
 8001a18:	d0e6fe04 	addi	r3,gp,-25608
 8001a1c:	10c00015 	stw	r3,0(r2)
  dev0ep.MaxPktSize = 0;
 8001a20:	d026fe8d 	sth	zero,-25606(gp)
  dev0ep.sndToggle = bmSNDTOG0; // set DATA0/1 toggles to 0
 8001a24:	00801004 	movi	r2,64
 8001a28:	d0a6ff45 	stb	r2,-25603(gp)
  dev0ep.rcvToggle = bmRCVTOG0;
 8001a2c:	00800404 	movi	r2,16
 8001a30:	d0a6ff85 	stb	r2,-25602(gp)
}
 8001a34:	0001883a 	nop
 8001a38:	e037883a 	mov	sp,fp
 8001a3c:	df000017 	ldw	fp,0(sp)
 8001a40:	dec00104 	addi	sp,sp,4
 8001a44:	f800283a 	ret

08001a48 <USB_Task>:
/* USB state machine. Connect/disconnect, enumeration, initialization   */
/* error codes: 01-0f HRSLT        */
/* ff - unsupported device         */
/* fe - no address available       */
/* fd - no client driver available */
void USB_Task(void) {
 8001a48:	deffb204 	addi	sp,sp,-312
 8001a4c:	dfc04d15 	stw	ra,308(sp)
 8001a50:	df004c15 	stw	fp,304(sp)
 8001a54:	dc004b15 	stw	r16,300(sp)
 8001a58:	df004c04 	addi	fp,sp,304
  USB_DEVICE_DESCRIPTOR buf;

  BYTE rcode, tmpdata;
  BYTE i;

  switch (usb_task_state & USB_STATE_MASK) {
 8001a5c:	d0a00203 	ldbu	r2,-32760(gp)
 8001a60:	10803fcc 	andi	r2,r2,255
 8001a64:	10803c0c 	andi	r2,r2,240
 8001a68:	10c00820 	cmpeqi	r3,r2,32
 8001a6c:	1801121e 	bne	r3,zero,8001eb8 <USB_Task+0x470>
 8001a70:	10c00848 	cmpgei	r3,r2,33
 8001a74:	1800041e 	bne	r3,zero,8001a88 <USB_Task+0x40>
 8001a78:	10000a26 	beq	r2,zero,8001aa4 <USB_Task+0x5c>
 8001a7c:	10800420 	cmpeqi	r2,r2,16
 8001a80:	10001b1e 	bne	r2,zero,8001af0 <USB_Task+0xa8>
  case (USB_STATE_ERROR):
    // vTaskDelay( LED_RATE ); //stay here if error
    break; //( USB_STATE_ERROR )
  default:
    // Should never get here
    break;
 8001a84:	00017a06 	br	8002070 <USB_Task+0x628>
  USB_DEVICE_DESCRIPTOR buf;

  BYTE rcode, tmpdata;
  BYTE i;

  switch (usb_task_state & USB_STATE_MASK) {
 8001a88:	10c01020 	cmpeqi	r3,r2,64
 8001a8c:	18016f1e 	bne	r3,zero,800204c <USB_Task+0x604>
 8001a90:	10c03fe0 	cmpeqi	r3,r2,255
 8001a94:	18016f1e 	bne	r3,zero,8002054 <USB_Task+0x60c>
 8001a98:	10800c20 	cmpeqi	r2,r2,48
 8001a9c:	1001441e 	bne	r2,zero,8001fb0 <USB_Task+0x568>
  case (USB_STATE_ERROR):
    // vTaskDelay( LED_RATE ); //stay here if error
    break; //( USB_STATE_ERROR )
  default:
    // Should never get here
    break;
 8001aa0:	00017306 	br	8002070 <USB_Task+0x628>

  switch (usb_task_state & USB_STATE_MASK) {
  /* Detached state - when nothing is connected to ( or just disconnected from)
   * USB bus   */
  case (USB_STATE_DETACHED):
    switch (usb_task_state) {
 8001aa4:	d0a00203 	ldbu	r2,-32760(gp)
 8001aa8:	10803fcc 	andi	r2,r2,255
 8001aac:	10c000e0 	cmpeqi	r3,r2,3
 8001ab0:	1800091e 	bne	r3,zero,8001ad8 <USB_Task+0x90>
 8001ab4:	10c00120 	cmpeqi	r3,r2,4
 8001ab8:	18000b1e 	bne	r3,zero,8001ae8 <USB_Task+0xa0>
 8001abc:	10800060 	cmpeqi	r2,r2,1
 8001ac0:	1000011e 	bne	r2,zero,8001ac8 <USB_Task+0x80>
      break;
    case (USB_DETACHED_SUBSTATE_ILLEGAL):
      /* don't know what to do yet */
      break;
    }                        // switch( usb_task_state )
    break;                   //( USB_STATE_DETACHED ):
 8001ac4:	00016a06 	br	8002070 <USB_Task+0x628>
   * USB bus   */
  case (USB_STATE_DETACHED):
    switch (usb_task_state) {
    case (USB_DETACHED_SUBSTATE_INITIALIZE):
      /* cleanup device data structures */
      USB_init();
 8001ac8:	80019b00 	call	80019b0 <USB_init>
      usb_task_state = USB_DETACHED_SUBSTATE_WAIT_FOR_DEVICE;
 8001acc:	008000c4 	movi	r2,3
 8001ad0:	d0a00205 	stb	r2,-32760(gp)
      break;
 8001ad4:	00000506 	br	8001aec <USB_Task+0xa4>
    case (USB_DETACHED_SUBSTATE_WAIT_FOR_DEVICE):
      /* Do nothing */
      MAXreg_wr(rHCTL, bmSAMPLEBUS);
 8001ad8:	01400104 	movi	r5,4
 8001adc:	01003a04 	movi	r4,232
 8001ae0:	8000c980 	call	8000c98 <MAXreg_wr>
      break;
 8001ae4:	00000106 	br	8001aec <USB_Task+0xa4>
    case (USB_DETACHED_SUBSTATE_ILLEGAL):
      /* don't know what to do yet */
      break;
 8001ae8:	0001883a 	nop
    }                        // switch( usb_task_state )
    break;                   //( USB_STATE_DETACHED ):
 8001aec:	00016006 	br	8002070 <USB_Task+0x628>
                             /**/
  case (USB_STATE_ATTACHED): // prepare for enumeration
    switch (usb_task_state) {
 8001af0:	d0a00203 	ldbu	r2,-32760(gp)
 8001af4:	10803fcc 	andi	r2,r2,255
 8001af8:	10bffc04 	addi	r2,r2,-16
 8001afc:	10c001a8 	cmpgeui	r3,r2,6
 8001b00:	1801561e 	bne	r3,zero,800205c <USB_Task+0x614>
 8001b04:	100690ba 	slli	r3,r2,2
 8001b08:	00820034 	movhi	r2,2048
 8001b0c:	1086c704 	addi	r2,r2,6940
 8001b10:	1885883a 	add	r2,r3,r2
 8001b14:	10800017 	ldw	r2,0(r2)
 8001b18:	1000683a 	jmp	r2
 8001b1c:	08001b34 	orhi	zero,at,108
 8001b20:	08001b6c 	andhi	zero,at,109
 8001b24:	08001ba8 	cmpgeui	zero,at,110
 8001b28:	08001bcc 	andi	zero,at,111
 8001b2c:	08001c0c 	andi	zero,at,112
 8001b30:	08001c20 	cmpeqi	zero,at,112
 * alt_nticks() returns the elapsed number of system clock ticks since reset.
 */

static ALT_INLINE alt_u32 ALT_ALWAYS_INLINE alt_nticks (void)
{
  return _alt_nticks;
 8001b34:	d0a73c17 	ldw	r2,-25360(gp)
    case (USB_STATE_ATTACHED):
      usb_delay = (alt_nticks() * 1000) / alt_ticks_per_second() +
 8001b38:	0140fa04 	movi	r5,1000
 8001b3c:	1009883a 	mov	r4,r2
 8001b40:	8007dd80 	call	8007dd8 <__mulsi3>
 8001b44:	1007883a 	mov	r3,r2
 * Obtain the system clock rate in ticks/s. 
 */

static ALT_INLINE alt_u32 ALT_ALWAYS_INLINE alt_ticks_per_second (void)
{
  return _alt_tick_rate;
 8001b48:	d0a73b17 	ldw	r2,-25364(gp)
 8001b4c:	100b883a 	mov	r5,r2
 8001b50:	1809883a 	mov	r4,r3
 8001b54:	8007d1c0 	call	8007d1c <__udivsi3>
 8001b58:	10803204 	addi	r2,r2,200
 8001b5c:	d0a70115 	stw	r2,-25596(gp)
                  200; // initial settle 200ms
      usb_task_state = USB_ATTACHED_SUBSTATE_SETTLE;
 8001b60:	00800444 	movi	r2,17
 8001b64:	d0a00205 	stb	r2,-32760(gp)
      break;                             // case( USB_STATE_ATTACHED )
 8001b68:	0000d206 	br	8001eb4 <USB_Task+0x46c>
 * alt_nticks() returns the elapsed number of system clock ticks since reset.
 */

static ALT_INLINE alt_u32 ALT_ALWAYS_INLINE alt_nticks (void)
{
  return _alt_nticks;
 8001b6c:	d0a73c17 	ldw	r2,-25360(gp)
    case (USB_ATTACHED_SUBSTATE_SETTLE): // waiting for settle timer to expire
      if ((alt_nticks() * 1000) / alt_ticks_per_second() > usb_delay) {
 8001b70:	0140fa04 	movi	r5,1000
 8001b74:	1009883a 	mov	r4,r2
 8001b78:	8007dd80 	call	8007dd8 <__mulsi3>
 8001b7c:	1007883a 	mov	r3,r2
 * Obtain the system clock rate in ticks/s. 
 */

static ALT_INLINE alt_u32 ALT_ALWAYS_INLINE alt_ticks_per_second (void)
{
  return _alt_tick_rate;
 8001b80:	d0a73b17 	ldw	r2,-25364(gp)
 8001b84:	100b883a 	mov	r5,r2
 8001b88:	1809883a 	mov	r4,r3
 8001b8c:	8007d1c0 	call	8007d1c <__udivsi3>
 8001b90:	1007883a 	mov	r3,r2
 8001b94:	d0a70117 	ldw	r2,-25596(gp)
 8001b98:	10c0c32e 	bgeu	r2,r3,8001ea8 <USB_Task+0x460>
        usb_task_state = USB_ATTACHED_SUBSTATE_RESET_DEVICE;
 8001b9c:	00800484 	movi	r2,18
 8001ba0:	d0a00205 	stb	r2,-32760(gp)
      }
      break; // case( USB_ATTACHED_SUBSTATE_SETTLE )
 8001ba4:	0000c006 	br	8001ea8 <USB_Task+0x460>
    case (USB_ATTACHED_SUBSTATE_RESET_DEVICE):
      MAXreg_wr(rHIRQ, bmBUSEVENTIRQ); // clear bus event IRQ
 8001ba8:	01400044 	movi	r5,1
 8001bac:	01003204 	movi	r4,200
 8001bb0:	8000c980 	call	8000c98 <MAXreg_wr>
      MAXreg_wr(rHCTL, bmBUSRST);      // issue bus reset
 8001bb4:	01400044 	movi	r5,1
 8001bb8:	01003a04 	movi	r4,232
 8001bbc:	8000c980 	call	8000c98 <MAXreg_wr>
      usb_task_state = USB_ATTACHED_SUBSTATE_WAIT_RESET_COMPLETE;
 8001bc0:	008004c4 	movi	r2,19
 8001bc4:	d0a00205 	stb	r2,-32760(gp)
      break; // case( USB_ATTACHED_SUBSTATE_RESET_DEVICE )
 8001bc8:	0000ba06 	br	8001eb4 <USB_Task+0x46c>
    case (USB_ATTACHED_SUBSTATE_WAIT_RESET_COMPLETE): // wait for bus reset and
                                                      // first SOF
      if ((MAXreg_rd(rHCTL) & bmBUSRST) == 0) {
 8001bcc:	01003a04 	movi	r4,232
 8001bd0:	8000e940 	call	8000e94 <MAXreg_rd>
 8001bd4:	10803fcc 	andi	r2,r2,255
 8001bd8:	1080004c 	andi	r2,r2,1
 8001bdc:	1000b41e 	bne	r2,zero,8001eb0 <USB_Task+0x468>
        tmpdata = MAXreg_rd(rMODE) | bmSOFKAENAB; // start SOF generation
 8001be0:	01003604 	movi	r4,216
 8001be4:	8000e940 	call	8000e94 <MAXreg_rd>
 8001be8:	10800214 	ori	r2,r2,8
 8001bec:	e0bfb945 	stb	r2,-283(fp)
        MAXreg_wr(rMODE, tmpdata);
 8001bf0:	e0bfb943 	ldbu	r2,-283(fp)
 8001bf4:	100b883a 	mov	r5,r2
 8001bf8:	01003604 	movi	r4,216
 8001bfc:	8000c980 	call	8000c98 <MAXreg_wr>
        usb_task_state = USB_ATTACHED_SUBSTATE_WAIT_SOF;
 8001c00:	00800504 	movi	r2,20
 8001c04:	d0a00205 	stb	r2,-32760(gp)
      }
      break; // case( USB_ATTACHED_SUBSTATE_WAIT_RESET_COMPLETE )
 8001c08:	0000a906 	br	8001eb0 <USB_Task+0x468>
    case (USB_ATTACHED_SUBSTATE_WAIT_SOF):
      if (MAXreg_rd(rHIRQ) |
 8001c0c:	01003204 	movi	r4,200
 8001c10:	8000e940 	call	8000e94 <MAXreg_rd>
          bmFRAMEIRQ) { // when first SOF received we can continue
        usb_task_state = USB_ATTACHED_SUBSTATE_GET_DEVICE_DESCRIPTOR_SIZE;
 8001c14:	00800544 	movi	r2,21
 8001c18:	d0a00205 	stb	r2,-32760(gp)
      }
      break; // case( USB_ATTACHED_SUBSTATE_WAIT_SOF )
 8001c1c:	0000a506 	br	8001eb4 <USB_Task+0x46c>
    case (
        USB_ATTACHED_SUBSTATE_GET_DEVICE_DESCRIPTOR_SIZE): // send request for
                                                           // first 8 bytes of
                                                           // device descriptor
      devtable[0].epinfo->MaxPktSize =
 8001c20:	008200b4 	movhi	r2,2050
 8001c24:	10b10404 	addi	r2,r2,-15344
 8001c28:	10800017 	ldw	r2,0(r2)
 8001c2c:	00c00204 	movi	r3,8
 8001c30:	10c0008d 	sth	r3,2(r2)
          0x0008; // fill max packet size with minimum allowed
      rcode =
 8001c34:	e0bfba04 	addi	r2,fp,-280
 8001c38:	d8800415 	stw	r2,16(sp)
 8001c3c:	00800204 	movi	r2,8
 8001c40:	d8800315 	stw	r2,12(sp)
 8001c44:	d8000215 	stw	zero,8(sp)
 8001c48:	00800044 	movi	r2,1
 8001c4c:	d8800115 	stw	r2,4(sp)
 8001c50:	d8000015 	stw	zero,0(sp)
 8001c54:	01c00184 	movi	r7,6
 8001c58:	01802004 	movi	r6,128
 8001c5c:	000b883a 	mov	r5,zero
 8001c60:	0009883a 	mov	r4,zero
 8001c64:	80013fc0 	call	80013fc <XferCtrlReq>
 8001c68:	e0bfb985 	stb	r2,-282(fp)
          XferGetDevDescr(0, 0, 8, (BYTE *)&buf); // get device descriptor size
      if (rcode == 0) {
 8001c6c:	e0bfb983 	ldbu	r2,-282(fp)
 8001c70:	1000861e 	bne	r2,zero,8001e8c <USB_Task+0x444>
        devtable[0].epinfo->MaxPktSize = buf.bMaxPacketSize0;
 8001c74:	008200b4 	movhi	r2,2050
 8001c78:	10b10404 	addi	r2,r2,-15344
 8001c7c:	10800017 	ldw	r2,0(r2)
 8001c80:	e0ffbbc3 	ldbu	r3,-273(fp)
 8001c84:	18c03fcc 	andi	r3,r3,255
 8001c88:	10c0008d 	sth	r3,2(r2)

        rcode = XferGetDevDescr(0, 0, buf.bLength,
 8001c8c:	e0bfba03 	ldbu	r2,-280(fp)
 8001c90:	10803fcc 	andi	r2,r2,255
 8001c94:	e0ffba04 	addi	r3,fp,-280
 8001c98:	d8c00415 	stw	r3,16(sp)
 8001c9c:	d8800315 	stw	r2,12(sp)
 8001ca0:	d8000215 	stw	zero,8(sp)
 8001ca4:	00800044 	movi	r2,1
 8001ca8:	d8800115 	stw	r2,4(sp)
 8001cac:	d8000015 	stw	zero,0(sp)
 8001cb0:	01c00184 	movi	r7,6
 8001cb4:	01802004 	movi	r6,128
 8001cb8:	000b883a 	mov	r5,zero
 8001cbc:	0009883a 	mov	r4,zero
 8001cc0:	80013fc0 	call	80013fc <XferCtrlReq>
 8001cc4:	e0bfb985 	stb	r2,-282(fp)
                                (BYTE *)&buf); // get full descriptor
        // pull the string descriptor for the product if it exists
        // hackish, store this somewhere
        if (buf.iManufacturer != 0) {
 8001cc8:	e0bfbd83 	ldbu	r2,-266(fp)
 8001ccc:	10803fcc 	andi	r2,r2,255
 8001cd0:	10003426 	beq	r2,zero,8001da4 <USB_Task+0x35c>
          USB_STRING_DESCRIPTOR strDesc;
          rcode = XferGetStrDescr(0, 0, 2, buf.iManufacturer, LANG_EN_US,
 8001cd4:	e0bfbd83 	ldbu	r2,-266(fp)
 8001cd8:	10803fcc 	andi	r2,r2,255
 8001cdc:	e0ffbe84 	addi	r3,fp,-262
 8001ce0:	d8c00415 	stw	r3,16(sp)
 8001ce4:	00c00084 	movi	r3,2
 8001ce8:	d8c00315 	stw	r3,12(sp)
 8001cec:	00c10244 	movi	r3,1033
 8001cf0:	d8c00215 	stw	r3,8(sp)
 8001cf4:	00c000c4 	movi	r3,3
 8001cf8:	d8c00115 	stw	r3,4(sp)
 8001cfc:	d8800015 	stw	r2,0(sp)
 8001d00:	01c00184 	movi	r7,6
 8001d04:	01802004 	movi	r6,128
 8001d08:	000b883a 	mov	r5,zero
 8001d0c:	0009883a 	mov	r4,zero
 8001d10:	80013fc0 	call	80013fc <XferCtrlReq>
 8001d14:	e0bfb985 	stb	r2,-282(fp)
                                  (BYTE *)&strDesc);
          rcode = XferGetStrDescr(0, 0, strDesc.bLength, buf.iManufacturer,
 8001d18:	e0bfbd83 	ldbu	r2,-266(fp)
 8001d1c:	10803fcc 	andi	r2,r2,255
 8001d20:	e0ffbe83 	ldbu	r3,-262(fp)
 8001d24:	18c03fcc 	andi	r3,r3,255
 8001d28:	e13fbe84 	addi	r4,fp,-262
 8001d2c:	d9000415 	stw	r4,16(sp)
 8001d30:	d8c00315 	stw	r3,12(sp)
 8001d34:	00c10244 	movi	r3,1033
 8001d38:	d8c00215 	stw	r3,8(sp)
 8001d3c:	00c000c4 	movi	r3,3
 8001d40:	d8c00115 	stw	r3,4(sp)
 8001d44:	d8800015 	stw	r2,0(sp)
 8001d48:	01c00184 	movi	r7,6
 8001d4c:	01802004 	movi	r6,128
 8001d50:	000b883a 	mov	r5,zero
 8001d54:	0009883a 	mov	r4,zero
 8001d58:	80013fc0 	call	80013fc <XferCtrlReq>
 8001d5c:	e0bfb985 	stb	r2,-282(fp)
                                  LANG_EN_US, (BYTE *)&strDesc);
          printf("Mfgr string(%i): %s\n", buf.iManufacturer,
 8001d60:	e0bfbd83 	ldbu	r2,-266(fp)
 8001d64:	14003fcc 	andi	r16,r2,255
                 ConvUTF8ToStr(strDesc.bString, (strDesc.bLength >> 1) - 1));
 8001d68:	e0bfbe83 	ldbu	r2,-262(fp)
          USB_STRING_DESCRIPTOR strDesc;
          rcode = XferGetStrDescr(0, 0, 2, buf.iManufacturer, LANG_EN_US,
                                  (BYTE *)&strDesc);
          rcode = XferGetStrDescr(0, 0, strDesc.bLength, buf.iManufacturer,
                                  LANG_EN_US, (BYTE *)&strDesc);
          printf("Mfgr string(%i): %s\n", buf.iManufacturer,
 8001d6c:	10803fcc 	andi	r2,r2,255
 8001d70:	1004d07a 	srli	r2,r2,1
 8001d74:	10bfffc4 	addi	r2,r2,-1
 8001d78:	10c03fcc 	andi	r3,r2,255
 8001d7c:	e0bfbe84 	addi	r2,fp,-262
 8001d80:	10800084 	addi	r2,r2,2
 8001d84:	180b883a 	mov	r5,r3
 8001d88:	1009883a 	mov	r4,r2
 8001d8c:	80022100 	call	8002210 <ConvUTF8ToStr>
 8001d90:	100d883a 	mov	r6,r2
 8001d94:	800b883a 	mov	r5,r16
 8001d98:	010200b4 	movhi	r4,2050
 8001d9c:	21207f04 	addi	r4,r4,-32260
 8001da0:	80081d40 	call	80081d4 <printf>
                 ConvUTF8ToStr(strDesc.bString, (strDesc.bLength >> 1) - 1));
        }
        if (buf.iProduct != 0) {
 8001da4:	e0bfbdc3 	ldbu	r2,-265(fp)
 8001da8:	10803fcc 	andi	r2,r2,255
 8001dac:	10003426 	beq	r2,zero,8001e80 <USB_Task+0x438>
          USB_STRING_DESCRIPTOR strDesc;
          rcode = XferGetStrDescr(0, 0, 2, buf.iProduct, LANG_EN_US,
 8001db0:	e0bfbdc3 	ldbu	r2,-265(fp)
 8001db4:	10803fcc 	andi	r2,r2,255
 8001db8:	e0ffbe84 	addi	r3,fp,-262
 8001dbc:	d8c00415 	stw	r3,16(sp)
 8001dc0:	00c00084 	movi	r3,2
 8001dc4:	d8c00315 	stw	r3,12(sp)
 8001dc8:	00c10244 	movi	r3,1033
 8001dcc:	d8c00215 	stw	r3,8(sp)
 8001dd0:	00c000c4 	movi	r3,3
 8001dd4:	d8c00115 	stw	r3,4(sp)
 8001dd8:	d8800015 	stw	r2,0(sp)
 8001ddc:	01c00184 	movi	r7,6
 8001de0:	01802004 	movi	r6,128
 8001de4:	000b883a 	mov	r5,zero
 8001de8:	0009883a 	mov	r4,zero
 8001dec:	80013fc0 	call	80013fc <XferCtrlReq>
 8001df0:	e0bfb985 	stb	r2,-282(fp)
                                  (BYTE *)&strDesc);
          rcode = XferGetStrDescr(0, 0, strDesc.bLength, buf.iProduct,
 8001df4:	e0bfbdc3 	ldbu	r2,-265(fp)
 8001df8:	10803fcc 	andi	r2,r2,255
 8001dfc:	e0ffbe83 	ldbu	r3,-262(fp)
 8001e00:	18c03fcc 	andi	r3,r3,255
 8001e04:	e13fbe84 	addi	r4,fp,-262
 8001e08:	d9000415 	stw	r4,16(sp)
 8001e0c:	d8c00315 	stw	r3,12(sp)
 8001e10:	00c10244 	movi	r3,1033
 8001e14:	d8c00215 	stw	r3,8(sp)
 8001e18:	00c000c4 	movi	r3,3
 8001e1c:	d8c00115 	stw	r3,4(sp)
 8001e20:	d8800015 	stw	r2,0(sp)
 8001e24:	01c00184 	movi	r7,6
 8001e28:	01802004 	movi	r6,128
 8001e2c:	000b883a 	mov	r5,zero
 8001e30:	0009883a 	mov	r4,zero
 8001e34:	80013fc0 	call	80013fc <XferCtrlReq>
 8001e38:	e0bfb985 	stb	r2,-282(fp)
                                  LANG_EN_US, (BYTE *)&strDesc);
          printf("Product string(%i): %s\n", buf.iProduct,
 8001e3c:	e0bfbdc3 	ldbu	r2,-265(fp)
 8001e40:	14003fcc 	andi	r16,r2,255
                 ConvUTF8ToStr(strDesc.bString, (strDesc.bLength >> 1) - 1));
 8001e44:	e0bfbe83 	ldbu	r2,-262(fp)
          USB_STRING_DESCRIPTOR strDesc;
          rcode = XferGetStrDescr(0, 0, 2, buf.iProduct, LANG_EN_US,
                                  (BYTE *)&strDesc);
          rcode = XferGetStrDescr(0, 0, strDesc.bLength, buf.iProduct,
                                  LANG_EN_US, (BYTE *)&strDesc);
          printf("Product string(%i): %s\n", buf.iProduct,
 8001e48:	10803fcc 	andi	r2,r2,255
 8001e4c:	1004d07a 	srli	r2,r2,1
 8001e50:	10bfffc4 	addi	r2,r2,-1
 8001e54:	10c03fcc 	andi	r3,r2,255
 8001e58:	e0bfbe84 	addi	r2,fp,-262
 8001e5c:	10800084 	addi	r2,r2,2
 8001e60:	180b883a 	mov	r5,r3
 8001e64:	1009883a 	mov	r4,r2
 8001e68:	80022100 	call	8002210 <ConvUTF8ToStr>
 8001e6c:	100d883a 	mov	r6,r2
 8001e70:	800b883a 	mov	r5,r16
 8001e74:	010200b4 	movhi	r4,2050
 8001e78:	21208504 	addi	r4,r4,-32236
 8001e7c:	80081d40 	call	80081d4 <printf>
                 ConvUTF8ToStr(strDesc.bString, (strDesc.bLength >> 1) - 1));
        }
        usb_task_state = USB_STATE_ADDRESSING;
 8001e80:	00800804 	movi	r2,32
 8001e84:	d0a00205 	stb	r2,-32760(gp)
      } else {
        usb_error = rcode;
        last_usb_task_state = usb_task_state;
        usb_task_state = USB_STATE_ERROR;
      }
      break; // case( USB_ATTACHED_SUBSTATE_GET_DEVICE_DESCRIPTOR_SIZE ):
 8001e88:	00000a06 	br	8001eb4 <USB_Task+0x46c>
                 ConvUTF8ToStr(strDesc.bString, (strDesc.bLength >> 1) - 1));
        }
        usb_task_state = USB_STATE_ADDRESSING;

      } else {
        usb_error = rcode;
 8001e8c:	e0bfb983 	ldbu	r2,-282(fp)
 8001e90:	d0a70245 	stb	r2,-25591(gp)
        last_usb_task_state = usb_task_state;
 8001e94:	d0a00203 	ldbu	r2,-32760(gp)
 8001e98:	d0a70005 	stb	r2,-25600(gp)
        usb_task_state = USB_STATE_ERROR;
 8001e9c:	00bfffc4 	movi	r2,-1
 8001ea0:	d0a00205 	stb	r2,-32760(gp)
      }
      break; // case( USB_ATTACHED_SUBSTATE_GET_DEVICE_DESCRIPTOR_SIZE ):
 8001ea4:	00000306 	br	8001eb4 <USB_Task+0x46c>
      break;                             // case( USB_STATE_ATTACHED )
    case (USB_ATTACHED_SUBSTATE_SETTLE): // waiting for settle timer to expire
      if ((alt_nticks() * 1000) / alt_ticks_per_second() > usb_delay) {
        usb_task_state = USB_ATTACHED_SUBSTATE_RESET_DEVICE;
      }
      break; // case( USB_ATTACHED_SUBSTATE_SETTLE )
 8001ea8:	0001883a 	nop
 8001eac:	00006b06 	br	800205c <USB_Task+0x614>
      if ((MAXreg_rd(rHCTL) & bmBUSRST) == 0) {
        tmpdata = MAXreg_rd(rMODE) | bmSOFKAENAB; // start SOF generation
        MAXreg_wr(rMODE, tmpdata);
        usb_task_state = USB_ATTACHED_SUBSTATE_WAIT_SOF;
      }
      break; // case( USB_ATTACHED_SUBSTATE_WAIT_RESET_COMPLETE )
 8001eb0:	0001883a 	nop
        last_usb_task_state = usb_task_state;
        usb_task_state = USB_STATE_ERROR;
      }
      break; // case( USB_ATTACHED_SUBSTATE_GET_DEVICE_DESCRIPTOR_SIZE ):
    }        // switch( usb_task_state )
    break;   // case ( USB_STATE_ATTACHED )
 8001eb4:	00006906 	br	800205c <USB_Task+0x614>
  case (USB_STATE_ADDRESSING): // give device an address
    for (i = 1; i < USB_NUMDEVICES; i++) {
 8001eb8:	00800044 	movi	r2,1
 8001ebc:	e0bfb905 	stb	r2,-284(fp)
 8001ec0:	00002d06 	br	8001f78 <USB_Task+0x530>
      if (devtable[i].epinfo == NULL) {
 8001ec4:	e0ffb903 	ldbu	r3,-284(fp)
 8001ec8:	008200b4 	movhi	r2,2050
 8001ecc:	10b10404 	addi	r2,r2,-15344
 8001ed0:	180690fa 	slli	r3,r3,3
 8001ed4:	10c5883a 	add	r2,r2,r3
 8001ed8:	10800017 	ldw	r2,0(r2)
 8001edc:	1000231e 	bne	r2,zero,8001f6c <USB_Task+0x524>
        devtable[i].epinfo = devtable[0].epinfo; // set correct MaxPktSize
 8001ee0:	e13fb903 	ldbu	r4,-284(fp)
 8001ee4:	008200b4 	movhi	r2,2050
 8001ee8:	10b10404 	addi	r2,r2,-15344
 8001eec:	10c00017 	ldw	r3,0(r2)
 8001ef0:	008200b4 	movhi	r2,2050
 8001ef4:	10b10404 	addi	r2,r2,-15344
 8001ef8:	200890fa 	slli	r4,r4,3
 8001efc:	1105883a 	add	r2,r2,r4
 8001f00:	10c00015 	stw	r3,0(r2)
        // devtable[ i ].epinfo->MaxPktSize = devtable[ 0 ].epinfo->MaxPktSize;
        // //copy uninitialized device record to have correct MaxPktSize
        rcode = XferSetAddr(0, 0, i);
 8001f04:	e0bfb903 	ldbu	r2,-284(fp)
 8001f08:	d8000415 	stw	zero,16(sp)
 8001f0c:	d8000315 	stw	zero,12(sp)
 8001f10:	d8000215 	stw	zero,8(sp)
 8001f14:	d8000115 	stw	zero,4(sp)
 8001f18:	d8800015 	stw	r2,0(sp)
 8001f1c:	01c00144 	movi	r7,5
 8001f20:	000d883a 	mov	r6,zero
 8001f24:	000b883a 	mov	r5,zero
 8001f28:	0009883a 	mov	r4,zero
 8001f2c:	80013fc0 	call	80013fc <XferCtrlReq>
 8001f30:	e0bfb985 	stb	r2,-282(fp)
        if (rcode == 0) {
 8001f34:	e0bfb983 	ldbu	r2,-282(fp)
 8001f38:	1000051e 	bne	r2,zero,8001f50 <USB_Task+0x508>
          tmp_addr = i;
 8001f3c:	e0bfb903 	ldbu	r2,-284(fp)
 8001f40:	d0a70205 	stb	r2,-25592(gp)
          usb_task_state = USB_STATE_CONFIGURING;
 8001f44:	00800c04 	movi	r2,48
 8001f48:	d0a00205 	stb	r2,-32760(gp)
        } else {
          usb_error = rcode; // set address error
          last_usb_task_state = usb_task_state;
          usb_task_state = USB_STATE_ERROR;
        }
        break; // break if address assigned or error occurred during address
 8001f4c:	00000d06 	br	8001f84 <USB_Task+0x53c>
        rcode = XferSetAddr(0, 0, i);
        if (rcode == 0) {
          tmp_addr = i;
          usb_task_state = USB_STATE_CONFIGURING;
        } else {
          usb_error = rcode; // set address error
 8001f50:	e0bfb983 	ldbu	r2,-282(fp)
 8001f54:	d0a70245 	stb	r2,-25591(gp)
          last_usb_task_state = usb_task_state;
 8001f58:	d0a00203 	ldbu	r2,-32760(gp)
 8001f5c:	d0a70005 	stb	r2,-25600(gp)
          usb_task_state = USB_STATE_ERROR;
 8001f60:	00bfffc4 	movi	r2,-1
 8001f64:	d0a00205 	stb	r2,-32760(gp)
        }
        break; // break if address assigned or error occurred during address
 8001f68:	00000606 	br	8001f84 <USB_Task+0x53c>
      }
      break; // case( USB_ATTACHED_SUBSTATE_GET_DEVICE_DESCRIPTOR_SIZE ):
    }        // switch( usb_task_state )
    break;   // case ( USB_STATE_ATTACHED )
  case (USB_STATE_ADDRESSING): // give device an address
    for (i = 1; i < USB_NUMDEVICES; i++) {
 8001f6c:	e0bfb903 	ldbu	r2,-284(fp)
 8001f70:	10800044 	addi	r2,r2,1
 8001f74:	e0bfb905 	stb	r2,-284(fp)
 8001f78:	e0bfb903 	ldbu	r2,-284(fp)
 8001f7c:	10800230 	cmpltui	r2,r2,8
 8001f80:	103fd01e 	bne	r2,zero,8001ec4 <USB_Task+0x47c>
        }
        break; // break if address assigned or error occurred during address
               // assignment attempt
      }
    }
    if (usb_task_state == USB_STATE_ADDRESSING) {
 8001f84:	d0a00203 	ldbu	r2,-32760(gp)
 8001f88:	10803fcc 	andi	r2,r2,255
 8001f8c:	10800818 	cmpnei	r2,r2,32
 8001f90:	1000341e 	bne	r2,zero,8002064 <USB_Task+0x61c>
      usb_error = 0xfe;
 8001f94:	00bfff84 	movi	r2,-2
 8001f98:	d0a70245 	stb	r2,-25591(gp)
      last_usb_task_state = usb_task_state;
 8001f9c:	d0a00203 	ldbu	r2,-32760(gp)
 8001fa0:	d0a70005 	stb	r2,-25600(gp)
      usb_task_state = USB_STATE_ERROR;
 8001fa4:	00bfffc4 	movi	r2,-1
 8001fa8:	d0a00205 	stb	r2,-32760(gp)
    }
    break; // case ( USB_STATE_ADDRESSING )
 8001fac:	00002d06 	br	8002064 <USB_Task+0x61c>
  case (
      USB_STATE_CONFIGURING): // checking for driver
                              // run device class probes until one returns TRUE
    for (i = 0; i < USB_NUMCLASSES; i++) {
 8001fb0:	e03fb905 	stb	zero,-284(fp)
 8001fb4:	00001706 	br	8002014 <USB_Task+0x5cc>
      rcode = ClientDriverTable[i].Initialize(tmp_addr, 0);
 8001fb8:	e0bfb903 	ldbu	r2,-284(fp)
 8001fbc:	040200b4 	movhi	r16,2050
 8001fc0:	8421f304 	addi	r16,r16,-30772
 8001fc4:	01400304 	movi	r5,12
 8001fc8:	1009883a 	mov	r4,r2
 8001fcc:	8007dd80 	call	8007dd8 <__mulsi3>
 8001fd0:	8085883a 	add	r2,r16,r2
 8001fd4:	10800017 	ldw	r2,0(r2)
 8001fd8:	d0e70203 	ldbu	r3,-25592(gp)
 8001fdc:	18c03fcc 	andi	r3,r3,255
 8001fe0:	000b883a 	mov	r5,zero
 8001fe4:	1809883a 	mov	r4,r3
 8001fe8:	103ee83a 	callr	r2
 8001fec:	e0bfb985 	stb	r2,-282(fp)
      if (rcode == TRUE) {
 8001ff0:	e0bfb983 	ldbu	r2,-282(fp)
 8001ff4:	10800058 	cmpnei	r2,r2,1
 8001ff8:	1000031e 	bne	r2,zero,8002008 <USB_Task+0x5c0>
        usb_task_state = USB_STATE_RUNNING;
 8001ffc:	00801004 	movi	r2,64
 8002000:	d0a00205 	stb	r2,-32760(gp)
        break;
 8002004:	00000606 	br	8002020 <USB_Task+0x5d8>
    }
    break; // case ( USB_STATE_ADDRESSING )
  case (
      USB_STATE_CONFIGURING): // checking for driver
                              // run device class probes until one returns TRUE
    for (i = 0; i < USB_NUMCLASSES; i++) {
 8002008:	e0bfb903 	ldbu	r2,-284(fp)
 800200c:	10800044 	addi	r2,r2,1
 8002010:	e0bfb905 	stb	r2,-284(fp)
 8002014:	e0bfb903 	ldbu	r2,-284(fp)
 8002018:	10800130 	cmpltui	r2,r2,4
 800201c:	103fe61e 	bne	r2,zero,8001fb8 <USB_Task+0x570>
      if (rcode == TRUE) {
        usb_task_state = USB_STATE_RUNNING;
        break;
      }
    }
    if (usb_task_state == USB_STATE_CONFIGURING) {
 8002020:	d0a00203 	ldbu	r2,-32760(gp)
 8002024:	10803fcc 	andi	r2,r2,255
 8002028:	10800c18 	cmpnei	r2,r2,48
 800202c:	10000f1e 	bne	r2,zero,800206c <USB_Task+0x624>
      usb_error = 0xfd;
 8002030:	00bfff44 	movi	r2,-3
 8002034:	d0a70245 	stb	r2,-25591(gp)
      last_usb_task_state = usb_task_state;
 8002038:	d0a00203 	ldbu	r2,-32760(gp)
 800203c:	d0a70005 	stb	r2,-25600(gp)
      usb_task_state = USB_STATE_ERROR;
 8002040:	00bfffc4 	movi	r2,-1
 8002044:	d0a00205 	stb	r2,-32760(gp)
    }
    break; //( USB_STATE_CONFIGURING )
 8002048:	00000806 	br	800206c <USB_Task+0x624>
  case (USB_STATE_RUNNING):
    // vTaskDelay( LED_RATE );
    break; //( USB_STATE_RUNNING )
 800204c:	0001883a 	nop
 8002050:	00000706 	br	8002070 <USB_Task+0x628>
  case (USB_STATE_ERROR):
    // vTaskDelay( LED_RATE ); //stay here if error
    break; //( USB_STATE_ERROR )
 8002054:	0001883a 	nop
 8002058:	00000506 	br	8002070 <USB_Task+0x628>
        last_usb_task_state = usb_task_state;
        usb_task_state = USB_STATE_ERROR;
      }
      break; // case( USB_ATTACHED_SUBSTATE_GET_DEVICE_DESCRIPTOR_SIZE ):
    }        // switch( usb_task_state )
    break;   // case ( USB_STATE_ATTACHED )
 800205c:	0001883a 	nop
 8002060:	00000306 	br	8002070 <USB_Task+0x628>
    if (usb_task_state == USB_STATE_ADDRESSING) {
      usb_error = 0xfe;
      last_usb_task_state = usb_task_state;
      usb_task_state = USB_STATE_ERROR;
    }
    break; // case ( USB_STATE_ADDRESSING )
 8002064:	0001883a 	nop
 8002068:	00000106 	br	8002070 <USB_Task+0x628>
    if (usb_task_state == USB_STATE_CONFIGURING) {
      usb_error = 0xfd;
      last_usb_task_state = usb_task_state;
      usb_task_state = USB_STATE_ERROR;
    }
    break; //( USB_STATE_CONFIGURING )
 800206c:	0001883a 	nop
    break; //( USB_STATE_ERROR )
  default:
    // Should never get here
    break;
  } // switch( usb_task_state & STATE_MASK )
}
 8002070:	0001883a 	nop
 8002074:	e6ffff04 	addi	sp,fp,-4
 8002078:	dfc00217 	ldw	ra,8(sp)
 800207c:	df000117 	ldw	fp,4(sp)
 8002080:	dc000017 	ldw	r16,0(sp)
 8002084:	dec00304 	addi	sp,sp,12
 8002088:	f800283a 	ret

0800208c <MSDProbe>:

// place-holders for MSD (mass-storage device) drivers, we don't have them
// ported. returns TRUE if device is successfully identified and configured,
// otherwise returns FALSE
BOOL MSDProbe(BYTE addr, DWORD flags) { return (FALSE); }
 800208c:	defffd04 	addi	sp,sp,-12
 8002090:	df000215 	stw	fp,8(sp)
 8002094:	df000204 	addi	fp,sp,8
 8002098:	2005883a 	mov	r2,r4
 800209c:	e17fff15 	stw	r5,-4(fp)
 80020a0:	e0bffe05 	stb	r2,-8(fp)
 80020a4:	0005883a 	mov	r2,zero
 80020a8:	e037883a 	mov	sp,fp
 80020ac:	df000017 	ldw	fp,0(sp)
 80020b0:	dec00104 	addi	sp,sp,4
 80020b4:	f800283a 	ret

080020b8 <MSDEventHandler>:

BOOL MSDEventHandler(BYTE address, BYTE event, void *data, DWORD size) {
 80020b8:	defffb04 	addi	sp,sp,-20
 80020bc:	df000415 	stw	fp,16(sp)
 80020c0:	df000404 	addi	fp,sp,16
 80020c4:	2007883a 	mov	r3,r4
 80020c8:	2805883a 	mov	r2,r5
 80020cc:	e1bffe15 	stw	r6,-8(fp)
 80020d0:	e1ffff15 	stw	r7,-4(fp)
 80020d4:	e0fffc05 	stb	r3,-16(fp)
 80020d8:	e0bffd05 	stb	r2,-12(fp)

  return (FALSE);
 80020dc:	0005883a 	mov	r2,zero
}
 80020e0:	e037883a 	mov	sp,fp
 80020e4:	df000017 	ldw	fp,0(sp)
 80020e8:	dec00104 	addi	sp,sp,4
 80020ec:	f800283a 	ret

080020f0 <CDCProbe>:
// CDC (communication device class also not supported)
BOOL CDCProbe(BYTE address, DWORD flags) { return (FALSE); }
 80020f0:	defffd04 	addi	sp,sp,-12
 80020f4:	df000215 	stw	fp,8(sp)
 80020f8:	df000204 	addi	fp,sp,8
 80020fc:	2005883a 	mov	r2,r4
 8002100:	e17fff15 	stw	r5,-4(fp)
 8002104:	e0bffe05 	stb	r2,-8(fp)
 8002108:	0005883a 	mov	r2,zero
 800210c:	e037883a 	mov	sp,fp
 8002110:	df000017 	ldw	fp,0(sp)
 8002114:	dec00104 	addi	sp,sp,4
 8002118:	f800283a 	ret

0800211c <CDCEventHandler>:

BOOL CDCEventHandler(BYTE address, BYTE event, void *data, DWORD size) {
 800211c:	defffb04 	addi	sp,sp,-20
 8002120:	df000415 	stw	fp,16(sp)
 8002124:	df000404 	addi	fp,sp,16
 8002128:	2007883a 	mov	r3,r4
 800212c:	2805883a 	mov	r2,r5
 8002130:	e1bffe15 	stw	r6,-8(fp)
 8002134:	e1ffff15 	stw	r7,-4(fp)
 8002138:	e0fffc05 	stb	r3,-16(fp)
 800213c:	e0bffd05 	stb	r2,-12(fp)
  return (FALSE);
 8002140:	0005883a 	mov	r2,zero
}
 8002144:	e037883a 	mov	sp,fp
 8002148:	df000017 	ldw	fp,0(sp)
 800214c:	dec00104 	addi	sp,sp,4
 8002150:	f800283a 	ret

08002154 <DummyProbe>:

BOOL DummyProbe(BYTE address, DWORD flags) { return (FALSE); }
 8002154:	defffd04 	addi	sp,sp,-12
 8002158:	df000215 	stw	fp,8(sp)
 800215c:	df000204 	addi	fp,sp,8
 8002160:	2005883a 	mov	r2,r4
 8002164:	e17fff15 	stw	r5,-4(fp)
 8002168:	e0bffe05 	stb	r2,-8(fp)
 800216c:	0005883a 	mov	r2,zero
 8002170:	e037883a 	mov	sp,fp
 8002174:	df000017 	ldw	fp,0(sp)
 8002178:	dec00104 	addi	sp,sp,4
 800217c:	f800283a 	ret

08002180 <DummyEventHandler>:

BOOL DummyEventHandler(BYTE address, BYTE event, void *data, DWORD size) {
 8002180:	defffb04 	addi	sp,sp,-20
 8002184:	df000415 	stw	fp,16(sp)
 8002188:	df000404 	addi	fp,sp,16
 800218c:	2007883a 	mov	r3,r4
 8002190:	2805883a 	mov	r2,r5
 8002194:	e1bffe15 	stw	r6,-8(fp)
 8002198:	e1ffff15 	stw	r7,-4(fp)
 800219c:	e0fffc05 	stb	r3,-16(fp)
 80021a0:	e0bffd05 	stb	r2,-12(fp)
  return (FALSE);
 80021a4:	0005883a 	mov	r2,zero
}
 80021a8:	e037883a 	mov	sp,fp
 80021ac:	df000017 	ldw	fp,0(sp)
 80021b0:	dec00104 	addi	sp,sp,4
 80021b4:	f800283a 	ret

080021b8 <GetUsbTaskState>:
/* Function to access usb_task_state variable from outside */
BYTE GetUsbTaskState(void) { return (usb_task_state); }
 80021b8:	deffff04 	addi	sp,sp,-4
 80021bc:	df000015 	stw	fp,0(sp)
 80021c0:	d839883a 	mov	fp,sp
 80021c4:	d0a00203 	ldbu	r2,-32760(gp)
 80021c8:	e037883a 	mov	sp,fp
 80021cc:	df000017 	ldw	fp,0(sp)
 80021d0:	dec00104 	addi	sp,sp,4
 80021d4:	f800283a 	ret

080021d8 <GetDevtable>:
/* Function to access devtable[] from outside */
DEV_RECORD *GetDevtable(BYTE index) { return (&devtable[index]); }
 80021d8:	defffe04 	addi	sp,sp,-8
 80021dc:	df000115 	stw	fp,4(sp)
 80021e0:	df000104 	addi	fp,sp,4
 80021e4:	2005883a 	mov	r2,r4
 80021e8:	e0bfff05 	stb	r2,-4(fp)
 80021ec:	e0bfff03 	ldbu	r2,-4(fp)
 80021f0:	100690fa 	slli	r3,r2,3
 80021f4:	008200b4 	movhi	r2,2050
 80021f8:	10b10404 	addi	r2,r2,-15344
 80021fc:	1885883a 	add	r2,r3,r2
 8002200:	e037883a 	mov	sp,fp
 8002204:	df000017 	ldw	fp,0(sp)
 8002208:	dec00104 	addi	sp,sp,4
 800220c:	f800283a 	ret

08002210 <ConvUTF8ToStr>:

char *ConvUTF8ToStr(BYTE *utf8, BYTE length) {
 8002210:	defffc04 	addi	sp,sp,-16
 8002214:	df000315 	stw	fp,12(sp)
 8002218:	df000304 	addi	fp,sp,12
 800221c:	e13ffe15 	stw	r4,-8(fp)
 8002220:	2805883a 	mov	r2,r5
 8002224:	e0bfff05 	stb	r2,-4(fp)
  BYTE i;
  for (i = 0; i < length; i++) {
 8002228:	e03ffd05 	stb	zero,-12(fp)
 800222c:	00000d06 	br	8002264 <ConvUTF8ToStr+0x54>
    utf8[i] = utf8[2 * i];
 8002230:	e0bffd03 	ldbu	r2,-12(fp)
 8002234:	e0fffe17 	ldw	r3,-8(fp)
 8002238:	1887883a 	add	r3,r3,r2
 800223c:	e0bffd03 	ldbu	r2,-12(fp)
 8002240:	1085883a 	add	r2,r2,r2
 8002244:	1009883a 	mov	r4,r2
 8002248:	e0bffe17 	ldw	r2,-8(fp)
 800224c:	1105883a 	add	r2,r2,r4
 8002250:	10800003 	ldbu	r2,0(r2)
 8002254:	18800005 	stb	r2,0(r3)
/* Function to access devtable[] from outside */
DEV_RECORD *GetDevtable(BYTE index) { return (&devtable[index]); }

char *ConvUTF8ToStr(BYTE *utf8, BYTE length) {
  BYTE i;
  for (i = 0; i < length; i++) {
 8002258:	e0bffd03 	ldbu	r2,-12(fp)
 800225c:	10800044 	addi	r2,r2,1
 8002260:	e0bffd05 	stb	r2,-12(fp)
 8002264:	e0fffd03 	ldbu	r3,-12(fp)
 8002268:	e0bfff03 	ldbu	r2,-4(fp)
 800226c:	18bff036 	bltu	r3,r2,8002230 <ConvUTF8ToStr+0x20>
    utf8[i] = utf8[2 * i];
  }
  utf8[length] = 0x00;
 8002270:	e0bfff03 	ldbu	r2,-4(fp)
 8002274:	e0fffe17 	ldw	r3,-8(fp)
 8002278:	1885883a 	add	r2,r3,r2
 800227c:	10000005 	stb	zero,0(r2)
  return (char *)utf8;
 8002280:	e0bffe17 	ldw	r2,-8(fp)
}
 8002284:	e037883a 	mov	sp,fp
 8002288:	df000017 	ldw	fp,0(sp)
 800228c:	dec00104 	addi	sp,sp,4
 8002290:	f800283a 	ret

08002294 <_ZN9EtherCard5beginEtPKhh>:
bool EtherCard::using_dhcp = false;
bool EtherCard::persist_tcp_connection = false;
uint16_t EtherCard::delaycnt = 0; // request gateway ARP lookup

uint8_t EtherCard::begin(const uint16_t size, const uint8_t *macaddr,
                         uint8_t csPin) {
 8002294:	defff904 	addi	sp,sp,-28
 8002298:	dfc00615 	stw	ra,24(sp)
 800229c:	df000515 	stw	fp,20(sp)
 80022a0:	df000504 	addi	fp,sp,20
 80022a4:	2007883a 	mov	r3,r4
 80022a8:	e17ffe15 	stw	r5,-8(fp)
 80022ac:	3005883a 	mov	r2,r6
 80022b0:	e0fffd0d 	sth	r3,-12(fp)
 80022b4:	e0bfff05 	stb	r2,-4(fp)
  using_dhcp = true;
 80022b8:	00800044 	movi	r2,1
 80022bc:	d0a70b45 	stb	r2,-25555(gp)
  copyMac(mymac, macaddr);
 80022c0:	e17ffe17 	ldw	r5,-8(fp)
 80022c4:	d12702c4 	addi	r4,gp,-25589
 80022c8:	80079a00 	call	80079a0 <_ZN9EtherCard7copyMacEPhPKh>
  uint8_t ret = initialize(size, mymac, csPin);
 80022cc:	e0bffd0b 	ldhu	r2,-12(fp)
 80022d0:	e0ffff03 	ldbu	r3,-4(fp)
 80022d4:	180d883a 	mov	r6,r3
 80022d8:	d16702c4 	addi	r5,gp,-25589
 80022dc:	1009883a 	mov	r4,r2
 80022e0:	8003f700 	call	8003f70 <_ZN8ENC28J6010initializeEtPKhh>
 80022e4:	e0bffc05 	stb	r2,-16(fp)
  printf("mymac: ");
 80022e8:	010200b4 	movhi	r4,2050
 80022ec:	21208b04 	addi	r4,r4,-32212
 80022f0:	80081d40 	call	80081d4 <printf>
  for (int i = 0; i < 6; i++)
 80022f4:	e03ffb15 	stw	zero,-20(fp)
 80022f8:	e0bffb17 	ldw	r2,-20(fp)
 80022fc:	10800188 	cmpgei	r2,r2,6
 8002300:	10000d1e 	bne	r2,zero,8002338 <_ZN9EtherCard5beginEtPKhh+0xa4>
    printf("%x, ", mymac[i]);
 8002304:	e0fffb17 	ldw	r3,-20(fp)
 8002308:	d0a702c4 	addi	r2,gp,-25589
 800230c:	1885883a 	add	r2,r3,r2
 8002310:	10800003 	ldbu	r2,0(r2)
 8002314:	10803fcc 	andi	r2,r2,255
 8002318:	100b883a 	mov	r5,r2
 800231c:	010200b4 	movhi	r4,2050
 8002320:	21208d04 	addi	r4,r4,-32204
 8002324:	80081d40 	call	80081d4 <printf>
                         uint8_t csPin) {
  using_dhcp = true;
  copyMac(mymac, macaddr);
  uint8_t ret = initialize(size, mymac, csPin);
  printf("mymac: ");
  for (int i = 0; i < 6; i++)
 8002328:	e0bffb17 	ldw	r2,-20(fp)
 800232c:	10800044 	addi	r2,r2,1
 8002330:	e0bffb15 	stw	r2,-20(fp)
 8002334:	003ff006 	br	80022f8 <_ZN9EtherCard5beginEtPKhh+0x64>
    printf("%x, ", mymac[i]);
  printf("\nfinished init (ret: %x)\n", ret);
 8002338:	e0bffc03 	ldbu	r2,-16(fp)
 800233c:	100b883a 	mov	r5,r2
 8002340:	010200b4 	movhi	r4,2050
 8002344:	21208f04 	addi	r4,r4,-32196
 8002348:	80081d40 	call	80081d4 <printf>
  return ret;
 800234c:	e0bffc03 	ldbu	r2,-16(fp)
}
 8002350:	e037883a 	mov	sp,fp
 8002354:	dfc00117 	ldw	ra,4(sp)
 8002358:	df000017 	ldw	fp,0(sp)
 800235c:	dec00204 	addi	sp,sp,8
 8002360:	f800283a 	ret

08002364 <_ZN9EtherCard11staticSetupEPKhS1_S1_S1_>:

bool EtherCard::staticSetup(const uint8_t *my_ip, const uint8_t *gw_ip,
                            const uint8_t *dns_ip, const uint8_t *mask) {
 8002364:	defffa04 	addi	sp,sp,-24
 8002368:	dfc00515 	stw	ra,20(sp)
 800236c:	df000415 	stw	fp,16(sp)
 8002370:	df000404 	addi	fp,sp,16
 8002374:	e13ffc15 	stw	r4,-16(fp)
 8002378:	e17ffd15 	stw	r5,-12(fp)
 800237c:	e1bffe15 	stw	r6,-8(fp)
 8002380:	e1ffff15 	stw	r7,-4(fp)
  using_dhcp = true;
 8002384:	00800044 	movi	r2,1
 8002388:	d0a70b45 	stb	r2,-25555(gp)

  if (my_ip != 0)
 800238c:	e0bffc17 	ldw	r2,-16(fp)
 8002390:	10000326 	beq	r2,zero,80023a0 <_ZN9EtherCard11staticSetupEPKhS1_S1_S1_+0x3c>
    copyIp(myip, my_ip);
 8002394:	e17ffc17 	ldw	r5,-16(fp)
 8002398:	d1270444 	addi	r4,gp,-25583
 800239c:	80079e00 	call	80079e0 <_ZN9EtherCard6copyIpEPhPKh>
  if (gw_ip != 0)
 80023a0:	e0bffd17 	ldw	r2,-12(fp)
 80023a4:	10000226 	beq	r2,zero,80023b0 <_ZN9EtherCard11staticSetupEPKhS1_S1_S1_+0x4c>
    setGwIp(gw_ip);
 80023a8:	e13ffd17 	ldw	r4,-12(fp)
 80023ac:	80062700 	call	8006270 <_ZN9EtherCard7setGwIpEPKh>
  if (dns_ip != 0)
 80023b0:	e0bffe17 	ldw	r2,-8(fp)
 80023b4:	10000326 	beq	r2,zero,80023c4 <_ZN9EtherCard11staticSetupEPKhS1_S1_S1_+0x60>
    copyIp(dnsip, dns_ip);
 80023b8:	e17ffe17 	ldw	r5,-8(fp)
 80023bc:	d1270944 	addi	r4,gp,-25563
 80023c0:	80079e00 	call	80079e0 <_ZN9EtherCard6copyIpEPhPKh>
  if (mask != 0)
 80023c4:	e0bfff17 	ldw	r2,-4(fp)
 80023c8:	10000326 	beq	r2,zero,80023d8 <_ZN9EtherCard11staticSetupEPKhS1_S1_S1_+0x74>
    copyIp(netmask, mask);
 80023cc:	e17fff17 	ldw	r5,-4(fp)
 80023d0:	d1270544 	addi	r4,gp,-25579
 80023d4:	80079e00 	call	80079e0 <_ZN9EtherCard6copyIpEPhPKh>
  updateBroadcastAddress();
 80023d8:	80062b40 	call	80062b4 <_ZN9EtherCard22updateBroadcastAddressEv>
  delaycnt = 0; // request gateway ARP lookup
 80023dc:	d0270c0d 	sth	zero,-25552(gp)
  return true;
 80023e0:	00800044 	movi	r2,1
}
 80023e4:	e037883a 	mov	sp,fp
 80023e8:	dfc00117 	ldw	ra,4(sp)
 80023ec:	df000017 	ldw	fp,0(sp)
 80023f0:	dec00204 	addi	sp,sp,8
 80023f4:	f800283a 	ret

080023f8 <_ZN9EtherCard4wtoaEtPc>:

char *EtherCard::wtoa(uint16_t value, char *ptr) {
 80023f8:	defffb04 	addi	sp,sp,-20
 80023fc:	dfc00415 	stw	ra,16(sp)
 8002400:	df000315 	stw	fp,12(sp)
 8002404:	df000304 	addi	fp,sp,12
 8002408:	e13ffd15 	stw	r4,-12(fp)
 800240c:	2805883a 	mov	r2,r5
 8002410:	e1bfff15 	stw	r6,-4(fp)
 8002414:	e0bffe0d 	sth	r2,-8(fp)
  if (value > 9)
 8002418:	e0bffe0b 	ldhu	r2,-8(fp)
 800241c:	108002b0 	cmpltui	r2,r2,10
 8002420:	10000a1e 	bne	r2,zero,800244c <_ZN9EtherCard4wtoaEtPc+0x54>
    ptr = wtoa(value / 10, ptr);
 8002424:	e0bffe0b 	ldhu	r2,-8(fp)
 8002428:	01400284 	movi	r5,10
 800242c:	1009883a 	mov	r4,r2
 8002430:	8007d1c0 	call	8007d1c <__udivsi3>
 8002434:	10bfffcc 	andi	r2,r2,65535
 8002438:	e1bfff17 	ldw	r6,-4(fp)
 800243c:	100b883a 	mov	r5,r2
 8002440:	e13ffd17 	ldw	r4,-12(fp)
 8002444:	80023f80 	call	80023f8 <_ZN9EtherCard4wtoaEtPc>
 8002448:	e0bfff15 	stw	r2,-4(fp)
  *ptr = '0' + value % 10;
 800244c:	e0bffe0b 	ldhu	r2,-8(fp)
 8002450:	01400284 	movi	r5,10
 8002454:	1009883a 	mov	r4,r2
 8002458:	8007d800 	call	8007d80 <__umodsi3>
 800245c:	10800c04 	addi	r2,r2,48
 8002460:	1007883a 	mov	r3,r2
 8002464:	e0bfff17 	ldw	r2,-4(fp)
 8002468:	10c00005 	stb	r3,0(r2)
  *++ptr = 0;
 800246c:	e0bfff17 	ldw	r2,-4(fp)
 8002470:	10800044 	addi	r2,r2,1
 8002474:	e0bfff15 	stw	r2,-4(fp)
 8002478:	e0bfff17 	ldw	r2,-4(fp)
 800247c:	10000005 	stb	zero,0(r2)
  return ptr;
 8002480:	e0bfff17 	ldw	r2,-4(fp)
}
 8002484:	e037883a 	mov	sp,fp
 8002488:	dfc00117 	ldw	ra,4(sp)
 800248c:	df000017 	ldw	fp,0(sp)
 8002490:	dec00204 	addi	sp,sp,8
 8002494:	f800283a 	ret

08002498 <_ZN12BufferFiller6emit_pEPKcz>:
#include <stdarg.h>
#include <stdio.h>
#include <stdlib.h>
#include <string.h>

void BufferFiller::emit_p(const char *fmt, ...) {
 8002498:	defff404 	addi	sp,sp,-48
 800249c:	dfc00915 	stw	ra,36(sp)
 80024a0:	df000815 	stw	fp,32(sp)
 80024a4:	dc000715 	stw	r16,28(sp)
 80024a8:	df000804 	addi	fp,sp,32
 80024ac:	e13ffd15 	stw	r4,-12(fp)
 80024b0:	e17ffe15 	stw	r5,-8(fp)
 80024b4:	e1800215 	stw	r6,8(fp)
 80024b8:	e1c00315 	stw	r7,12(fp)
  va_list ap;
  va_start(ap, fmt);
 80024bc:	e0800204 	addi	r2,fp,8
 80024c0:	e0bffc15 	stw	r2,-16(fp)
  for (;;) {
    char c = *fmt++;
 80024c4:	e0bffe17 	ldw	r2,-8(fp)
 80024c8:	10c00044 	addi	r3,r2,1
 80024cc:	e0fffe15 	stw	r3,-8(fp)
 80024d0:	10800003 	ldbu	r2,0(r2)
 80024d4:	e0bffb05 	stb	r2,-20(fp)
    if (c == 0)
 80024d8:	e0bffb07 	ldb	r2,-20(fp)
 80024dc:	1000b926 	beq	r2,zero,80027c4 <_ZN12BufferFiller6emit_pEPKcz+0x32c>
      break;
    if (c != '$') {
 80024e0:	e0bffb07 	ldb	r2,-20(fp)
 80024e4:	10800920 	cmpeqi	r2,r2,36
 80024e8:	1000081e 	bne	r2,zero,800250c <_ZN12BufferFiller6emit_pEPKcz+0x74>
      *ptr++ = c;
 80024ec:	e0bffd17 	ldw	r2,-12(fp)
 80024f0:	10800117 	ldw	r2,4(r2)
 80024f4:	11000044 	addi	r4,r2,1
 80024f8:	e0fffd17 	ldw	r3,-12(fp)
 80024fc:	19000115 	stw	r4,4(r3)
 8002500:	e0fffb03 	ldbu	r3,-20(fp)
 8002504:	10c00005 	stb	r3,0(r2)
      continue;
 8002508:	0000ad06 	br	80027c0 <_ZN12BufferFiller6emit_pEPKcz+0x328>
    }
    c = *fmt++;
 800250c:	e0bffe17 	ldw	r2,-8(fp)
 8002510:	10c00044 	addi	r3,r2,1
 8002514:	e0fffe15 	stw	r3,-8(fp)
 8002518:	10800003 	ldbu	r2,0(r2)
 800251c:	e0bffb05 	stb	r2,-20(fp)
    switch (c) {
 8002520:	e0bffb07 	ldb	r2,-20(fp)
 8002524:	10bfef04 	addi	r2,r2,-68
 8002528:	10c00428 	cmpgeui	r3,r2,16
 800252c:	18008f1e 	bne	r3,zero,800276c <_ZN12BufferFiller6emit_pEPKcz+0x2d4>
 8002530:	100690ba 	slli	r3,r2,2
 8002534:	00820034 	movhi	r2,2048
 8002538:	10895204 	addi	r2,r2,9544
 800253c:	1885883a 	add	r2,r3,r2
 8002540:	10800017 	ldw	r2,0(r2)
 8002544:	1000683a 	jmp	r2
 8002548:	08002588 	cmpgei	zero,at,150
 800254c:	08002714 	ori	zero,at,156
 8002550:	080026bc 	xorhi	zero,at,154
 8002554:	0800276c 	andhi	zero,at,157
 8002558:	080025b8 	rdprs	zero,at,150
 800255c:	0800276c 	andhi	zero,at,157
 8002560:	0800276c 	andhi	zero,at,157
 8002564:	0800276c 	andhi	zero,at,157
 8002568:	0800266c 	andhi	zero,at,153
 800256c:	0800276c 	andhi	zero,at,157
 8002570:	0800276c 	andhi	zero,at,157
 8002574:	0800276c 	andhi	zero,at,157
 8002578:	0800276c 	andhi	zero,at,157
 800257c:	0800276c 	andhi	zero,at,157
 8002580:	0800276c 	andhi	zero,at,157
 8002584:	08002698 	cmpnei	zero,at,154
    case 'D':

      ether.wtoa(va_arg(ap, int), (char *)ptr);
 8002588:	e0bffc17 	ldw	r2,-16(fp)
 800258c:	10c00104 	addi	r3,r2,4
 8002590:	e0fffc15 	stw	r3,-16(fp)
 8002594:	10800017 	ldw	r2,0(r2)
 8002598:	10ffffcc 	andi	r3,r2,65535
 800259c:	e0bffd17 	ldw	r2,-12(fp)
 80025a0:	10800117 	ldw	r2,4(r2)
 80025a4:	100d883a 	mov	r6,r2
 80025a8:	180b883a 	mov	r5,r3
 80025ac:	d1270284 	addi	r4,gp,-25590
 80025b0:	80023f80 	call	80023f8 <_ZN9EtherCard4wtoaEtPc>

      break;
 80025b4:	00007506 	br	800278c <_ZN12BufferFiller6emit_pEPKcz+0x2f4>
      dtostrf(va_arg(ap, double), 10, 3, (char *)ptr);
      break;
#endif
    case 'H': {

      char p1 = va_arg(ap, int);
 80025b8:	e0bffc17 	ldw	r2,-16(fp)
 80025bc:	10c00104 	addi	r3,r2,4
 80025c0:	e0fffc15 	stw	r3,-16(fp)
 80025c4:	10800017 	ldw	r2,0(r2)
 80025c8:	e0bff805 	stb	r2,-32(fp)

      char p2;
      p2 = (p1 >> 4) & 0x0F;
 80025cc:	e0bff807 	ldb	r2,-32(fp)
 80025d0:	1005d13a 	srai	r2,r2,4
 80025d4:	108003cc 	andi	r2,r2,15
 80025d8:	e0bff845 	stb	r2,-31(fp)
      p1 = p1 & 0x0F;
 80025dc:	e0bff803 	ldbu	r2,-32(fp)
 80025e0:	108003cc 	andi	r2,r2,15
 80025e4:	e0bff805 	stb	r2,-32(fp)
      if (p1 > 9)
 80025e8:	e0bff807 	ldb	r2,-32(fp)
 80025ec:	10800290 	cmplti	r2,r2,10
 80025f0:	1000031e 	bne	r2,zero,8002600 <_ZN12BufferFiller6emit_pEPKcz+0x168>
        p1 += 0x07; // adjust 0x0a-0x0f to come out 'a'-'f'
 80025f4:	e0bff803 	ldbu	r2,-32(fp)
 80025f8:	108001c4 	addi	r2,r2,7
 80025fc:	e0bff805 	stb	r2,-32(fp)
      p1 += 0x30;   // and complete
 8002600:	e0bff803 	ldbu	r2,-32(fp)
 8002604:	10800c04 	addi	r2,r2,48
 8002608:	e0bff805 	stb	r2,-32(fp)
      if (p2 > 9)
 800260c:	e0bff847 	ldb	r2,-31(fp)
 8002610:	10800290 	cmplti	r2,r2,10
 8002614:	1000031e 	bne	r2,zero,8002624 <_ZN12BufferFiller6emit_pEPKcz+0x18c>
        p2 += 0x07; // adjust 0x0a-0x0f to come out 'a'-'f'
 8002618:	e0bff843 	ldbu	r2,-31(fp)
 800261c:	108001c4 	addi	r2,r2,7
 8002620:	e0bff845 	stb	r2,-31(fp)
      p2 += 0x30;   // and complete
 8002624:	e0bff843 	ldbu	r2,-31(fp)
 8002628:	10800c04 	addi	r2,r2,48
 800262c:	e0bff845 	stb	r2,-31(fp)
      *ptr++ = p2;
 8002630:	e0bffd17 	ldw	r2,-12(fp)
 8002634:	10800117 	ldw	r2,4(r2)
 8002638:	11000044 	addi	r4,r2,1
 800263c:	e0fffd17 	ldw	r3,-12(fp)
 8002640:	19000115 	stw	r4,4(r3)
 8002644:	e0fff843 	ldbu	r3,-31(fp)
 8002648:	10c00005 	stb	r3,0(r2)
      *ptr++ = p1;
 800264c:	e0bffd17 	ldw	r2,-12(fp)
 8002650:	10800117 	ldw	r2,4(r2)
 8002654:	11000044 	addi	r4,r2,1
 8002658:	e0fffd17 	ldw	r3,-12(fp)
 800265c:	19000115 	stw	r4,4(r3)
 8002660:	e0fff803 	ldbu	r3,-32(fp)
 8002664:	10c00005 	stb	r3,0(r2)
      continue;
 8002668:	00005506 	br	80027c0 <_ZN12BufferFiller6emit_pEPKcz+0x328>
    }
    case 'L':
      itoa(va_arg(ap, long), (char *)ptr, 10);
 800266c:	e0bffc17 	ldw	r2,-16(fp)
 8002670:	10c00104 	addi	r3,r2,4
 8002674:	e0fffc15 	stw	r3,-16(fp)
 8002678:	10c00017 	ldw	r3,0(r2)
 800267c:	e0bffd17 	ldw	r2,-12(fp)
 8002680:	10800117 	ldw	r2,4(r2)
 8002684:	01800284 	movi	r6,10
 8002688:	100b883a 	mov	r5,r2
 800268c:	1809883a 	mov	r4,r3
 8002690:	8007eb40 	call	8007eb4 <itoa>
      break;
 8002694:	00003d06 	br	800278c <_ZN12BufferFiller6emit_pEPKcz+0x2f4>
    case 'S':
      strcpy((char *)ptr, va_arg(ap, const char *));
 8002698:	e0bffd17 	ldw	r2,-12(fp)
 800269c:	11000117 	ldw	r4,4(r2)
 80026a0:	e0bffc17 	ldw	r2,-16(fp)
 80026a4:	10c00104 	addi	r3,r2,4
 80026a8:	e0fffc15 	stw	r3,-16(fp)
 80026ac:	10800017 	ldw	r2,0(r2)
 80026b0:	100b883a 	mov	r5,r2
 80026b4:	80083040 	call	8008304 <strcpy>
      break;
 80026b8:	00003406 	br	800278c <_ZN12BufferFiller6emit_pEPKcz+0x2f4>
    case 'F': {
      const char *s = va_arg(ap, const char *);
 80026bc:	e0bffc17 	ldw	r2,-16(fp)
 80026c0:	10c00104 	addi	r3,r2,4
 80026c4:	e0fffc15 	stw	r3,-16(fp)
 80026c8:	10800017 	ldw	r2,0(r2)
 80026cc:	e0bff915 	stw	r2,-28(fp)
      char d;
      while ((d = *s++) != 0)
 80026d0:	e0bff917 	ldw	r2,-28(fp)
 80026d4:	10c00044 	addi	r3,r2,1
 80026d8:	e0fff915 	stw	r3,-28(fp)
 80026dc:	10800003 	ldbu	r2,0(r2)
 80026e0:	e0bffb45 	stb	r2,-19(fp)
 80026e4:	e0bffb47 	ldb	r2,-19(fp)
 80026e8:	1004c03a 	cmpne	r2,r2,zero
 80026ec:	10803fcc 	andi	r2,r2,255
 80026f0:	10003026 	beq	r2,zero,80027b4 <_ZN12BufferFiller6emit_pEPKcz+0x31c>
        *ptr++ = d;
 80026f4:	e0bffd17 	ldw	r2,-12(fp)
 80026f8:	10800117 	ldw	r2,4(r2)
 80026fc:	11000044 	addi	r4,r2,1
 8002700:	e0fffd17 	ldw	r3,-12(fp)
 8002704:	19000115 	stw	r4,4(r3)
 8002708:	e0fffb43 	ldbu	r3,-19(fp)
 800270c:	10c00005 	stb	r3,0(r2)
      strcpy((char *)ptr, va_arg(ap, const char *));
      break;
    case 'F': {
      const char *s = va_arg(ap, const char *);
      char d;
      while ((d = *s++) != 0)
 8002710:	003fef06 	br	80026d0 <_ZN12BufferFiller6emit_pEPKcz+0x238>
        *ptr++ = d;
      continue;
    }
    case 'E': {
      byte *s = va_arg(ap, byte *);
 8002714:	e0bffc17 	ldw	r2,-16(fp)
 8002718:	10c00104 	addi	r3,r2,4
 800271c:	e0fffc15 	stw	r3,-16(fp)
 8002720:	10800017 	ldw	r2,0(r2)
 8002724:	e0bffa15 	stw	r2,-24(fp)
      char d;
      while ((d = *s++) != 0)
 8002728:	e0bffa17 	ldw	r2,-24(fp)
 800272c:	10c00044 	addi	r3,r2,1
 8002730:	e0fffa15 	stw	r3,-24(fp)
 8002734:	10800003 	ldbu	r2,0(r2)
 8002738:	e0bffb85 	stb	r2,-18(fp)
 800273c:	e0bffb87 	ldb	r2,-18(fp)
 8002740:	1004c03a 	cmpne	r2,r2,zero
 8002744:	10803fcc 	andi	r2,r2,255
 8002748:	10001c26 	beq	r2,zero,80027bc <_ZN12BufferFiller6emit_pEPKcz+0x324>
        *ptr++ = d;
 800274c:	e0bffd17 	ldw	r2,-12(fp)
 8002750:	10800117 	ldw	r2,4(r2)
 8002754:	11000044 	addi	r4,r2,1
 8002758:	e0fffd17 	ldw	r3,-12(fp)
 800275c:	19000115 	stw	r4,4(r3)
 8002760:	e0fffb83 	ldbu	r3,-18(fp)
 8002764:	10c00005 	stb	r3,0(r2)
      continue;
    }
    case 'E': {
      byte *s = va_arg(ap, byte *);
      char d;
      while ((d = *s++) != 0)
 8002768:	003fef06 	br	8002728 <_ZN12BufferFiller6emit_pEPKcz+0x290>
        *ptr++ = d;
      continue;
    }
    default:
      *ptr++ = c;
 800276c:	e0bffd17 	ldw	r2,-12(fp)
 8002770:	10800117 	ldw	r2,4(r2)
 8002774:	11000044 	addi	r4,r2,1
 8002778:	e0fffd17 	ldw	r3,-12(fp)
 800277c:	19000115 	stw	r4,4(r3)
 8002780:	e0fffb03 	ldbu	r3,-20(fp)
 8002784:	10c00005 	stb	r3,0(r2)
      continue;
 8002788:	00000d06 	br	80027c0 <_ZN12BufferFiller6emit_pEPKcz+0x328>
    }
    ptr += strlen((char *)ptr);
 800278c:	e0bffd17 	ldw	r2,-12(fp)
 8002790:	14000117 	ldw	r16,4(r2)
 8002794:	e0bffd17 	ldw	r2,-12(fp)
 8002798:	10800117 	ldw	r2,4(r2)
 800279c:	1009883a 	mov	r4,r2
 80027a0:	80083940 	call	8008394 <strlen>
 80027a4:	8087883a 	add	r3,r16,r2
 80027a8:	e0bffd17 	ldw	r2,-12(fp)
 80027ac:	10c00115 	stw	r3,4(r2)
 80027b0:	003f4406 	br	80024c4 <_ZN12BufferFiller6emit_pEPKcz+0x2c>
    case 'F': {
      const char *s = va_arg(ap, const char *);
      char d;
      while ((d = *s++) != 0)
        *ptr++ = d;
      continue;
 80027b4:	0001883a 	nop
 80027b8:	003f4206 	br	80024c4 <_ZN12BufferFiller6emit_pEPKcz+0x2c>
    case 'E': {
      byte *s = va_arg(ap, byte *);
      char d;
      while ((d = *s++) != 0)
        *ptr++ = d;
      continue;
 80027bc:	0001883a 	nop
#include <string.h>

void BufferFiller::emit_p(const char *fmt, ...) {
  va_list ap;
  va_start(ap, fmt);
  for (;;) {
 80027c0:	003f4006 	br	80024c4 <_ZN12BufferFiller6emit_pEPKcz+0x2c>
    char c = *fmt++;
    if (c == 0)
      break;
 80027c4:	0001883a 	nop
      continue;
    }
    ptr += strlen((char *)ptr);
  }
  va_end(ap);
}
 80027c8:	0001883a 	nop
 80027cc:	e6ffff04 	addi	sp,fp,-4
 80027d0:	dfc00217 	ldw	ra,8(sp)
 80027d4:	df000117 	ldw	fp,4(sp)
 80027d8:	dc000017 	ldw	r16,0(sp)
 80027dc:	dec00504 	addi	sp,sp,20
 80027e0:	f800283a 	ret

080027e4 <_Z6millisv>:
static uint8_t *dhcpCustomOptionList = NULL;
static DhcpOptionCallback dhcpCustomOptionCallback = NULL;

extern uint8_t allOnes[]; // = { 0xFF, 0xFF, 0xFF, 0xFF, 0xFF, 0xFF };

uint32_t millis() { return (uint32_t)clock(); }
 80027e4:	defffe04 	addi	sp,sp,-8
 80027e8:	dfc00115 	stw	ra,4(sp)
 80027ec:	df000015 	stw	fp,0(sp)
 80027f0:	d839883a 	mov	fp,sp
 80027f4:	8007e000 	call	8007e00 <clock>
 80027f8:	e037883a 	mov	sp,fp
 80027fc:	dfc00117 	ldw	ra,4(sp)
 8002800:	df000017 	ldw	fp,0(sp)
 8002804:	dec00204 	addi	sp,sp,8
 8002808:	f800283a 	ret

0800280c <_ZL8addToBufh>:

static void addToBuf(byte b) { *bufPtr++ = b; }
 800280c:	defffe04 	addi	sp,sp,-8
 8002810:	df000115 	stw	fp,4(sp)
 8002814:	df000104 	addi	fp,sp,4
 8002818:	2005883a 	mov	r2,r4
 800281c:	e0bfff05 	stb	r2,-4(fp)
 8002820:	d0a71217 	ldw	r2,-25528(gp)
 8002824:	10c00044 	addi	r3,r2,1
 8002828:	d0e71215 	stw	r3,-25528(gp)
 800282c:	e0ffff03 	ldbu	r3,-4(fp)
 8002830:	10c00005 	stb	r3,0(r2)
 8002834:	0001883a 	nop
 8002838:	e037883a 	mov	sp,fp
 800283c:	df000017 	ldw	fp,0(sp)
 8002840:	dec00104 	addi	sp,sp,4
 8002844:	f800283a 	ret

08002848 <_ZL8addByteshPKh>:

static void addBytes(byte len, const byte *data) {
 8002848:	defffc04 	addi	sp,sp,-16
 800284c:	dfc00315 	stw	ra,12(sp)
 8002850:	df000215 	stw	fp,8(sp)
 8002854:	df000204 	addi	fp,sp,8
 8002858:	2005883a 	mov	r2,r4
 800285c:	e17fff15 	stw	r5,-4(fp)
 8002860:	e0bffe05 	stb	r2,-8(fp)
  while (len-- > 0)
 8002864:	e0bffe03 	ldbu	r2,-8(fp)
 8002868:	10ffffc4 	addi	r3,r2,-1
 800286c:	e0fffe05 	stb	r3,-8(fp)
 8002870:	10803fcc 	andi	r2,r2,255
 8002874:	1004c03a 	cmpne	r2,r2,zero
 8002878:	10803fcc 	andi	r2,r2,255
 800287c:	10000826 	beq	r2,zero,80028a0 <_ZL8addByteshPKh+0x58>
    addToBuf(*data++);
 8002880:	e0bfff17 	ldw	r2,-4(fp)
 8002884:	10c00044 	addi	r3,r2,1
 8002888:	e0ffff15 	stw	r3,-4(fp)
 800288c:	10800003 	ldbu	r2,0(r2)
 8002890:	10803fcc 	andi	r2,r2,255
 8002894:	1009883a 	mov	r4,r2
 8002898:	800280c0 	call	800280c <_ZL8addToBufh>
uint32_t millis() { return (uint32_t)clock(); }

static void addToBuf(byte b) { *bufPtr++ = b; }

static void addBytes(byte len, const byte *data) {
  while (len-- > 0)
 800289c:	003ff106 	br	8002864 <_ZL8addByteshPKh+0x1c>
    addToBuf(*data++);
}
 80028a0:	0001883a 	nop
 80028a4:	e037883a 	mov	sp,fp
 80028a8:	dfc00117 	ldw	ra,4(sp)
 80028ac:	df000017 	ldw	fp,0(sp)
 80028b0:	dec00204 	addi	sp,sp,8
 80028b4:	f800283a 	ret

080028b8 <_ZL9addOptionhhPKh>:

static void addOption(byte opt, byte len, const byte *data) {
 80028b8:	defffb04 	addi	sp,sp,-20
 80028bc:	dfc00415 	stw	ra,16(sp)
 80028c0:	df000315 	stw	fp,12(sp)
 80028c4:	df000304 	addi	fp,sp,12
 80028c8:	2007883a 	mov	r3,r4
 80028cc:	2805883a 	mov	r2,r5
 80028d0:	e1bfff15 	stw	r6,-4(fp)
 80028d4:	e0fffd05 	stb	r3,-12(fp)
 80028d8:	e0bffe05 	stb	r2,-8(fp)
  addToBuf(opt);
 80028dc:	e0bffd03 	ldbu	r2,-12(fp)
 80028e0:	1009883a 	mov	r4,r2
 80028e4:	800280c0 	call	800280c <_ZL8addToBufh>
  addToBuf(len);
 80028e8:	e0bffe03 	ldbu	r2,-8(fp)
 80028ec:	1009883a 	mov	r4,r2
 80028f0:	800280c0 	call	800280c <_ZL8addToBufh>
  addBytes(len, data);
 80028f4:	e0bffe03 	ldbu	r2,-8(fp)
 80028f8:	e17fff17 	ldw	r5,-4(fp)
 80028fc:	1009883a 	mov	r4,r2
 8002900:	80028480 	call	8002848 <_ZL8addByteshPKh>
}
 8002904:	0001883a 	nop
 8002908:	e037883a 	mov	sp,fp
 800290c:	dfc00117 	ldw	ra,4(sp)
 8002910:	df000017 	ldw	fp,0(sp)
 8002914:	dec00204 	addi	sp,sp,8
 8002918:	f800283a 	ret

0800291c <_ZL17send_dhcp_messagePh>:
#define DHCP_OPT_CLIENT_IDENTIFIER 61
#define DHCP_OPT_END 255

#define DHCP_HTYPE_ETHER 1

static void send_dhcp_message(uint8_t *requestip) {
 800291c:	defff904 	addi	sp,sp,-28
 8002920:	dfc00615 	stw	ra,24(sp)
 8002924:	df000515 	stw	fp,20(sp)
 8002928:	df000504 	addi	fp,sp,20
 800292c:	e13fff15 	stw	r4,-4(fp)

  memset(gPB, 0, UDP_DATA_P + sizeof(DHCPdata));
 8002930:	00804584 	movi	r2,278
 8002934:	100d883a 	mov	r6,r2
 8002938:	000b883a 	mov	r5,zero
 800293c:	010200b4 	movhi	r4,2050
 8002940:	21300b04 	addi	r4,r4,-16340
 8002944:	800807c0 	call	800807c <memset>

  EtherCard::udpPrepare(
      DHCP_CLIENT_PORT,
      (dhcpState == DHCP_STATE_BOUND ? EtherCard::dhcpip : allOnes),
 8002948:	d0a70d03 	ldbu	r2,-25548(gp)

static void send_dhcp_message(uint8_t *requestip) {

  memset(gPB, 0, UDP_DATA_P + sizeof(DHCPdata));

  EtherCard::udpPrepare(
 800294c:	10803fcc 	andi	r2,r2,255
 8002950:	108000d8 	cmpnei	r2,r2,3
 8002954:	1000021e 	bne	r2,zero,8002960 <_ZL17send_dhcp_messagePh+0x44>
 8002958:	d0a70844 	addi	r2,gp,-25567
 800295c:	00000206 	br	8002968 <_ZL17send_dhcp_messagePh+0x4c>
 8002960:	008200b4 	movhi	r2,2050
 8002964:	10a8b7c4 	addi	r2,r2,-23841
      DHCP_CLIENT_PORT,
      (dhcpState == DHCP_STATE_BOUND ? EtherCard::dhcpip : allOnes),
      DHCP_SERVER_PORT);
 8002968:	018010c4 	movi	r6,67
 800296c:	100b883a 	mov	r5,r2
 8002970:	01001104 	movi	r4,68
 8002974:	8005c300 	call	8005c30 <_ZN9EtherCard10udpPrepareEtPKht>

  // If we ever don't do this, the DHCP renewal gets sent to whatever random
  // destmacaddr was used by other code. Rather than cache the MAC address of
  // the DHCP server, just force a broadcast here in all cases.
  EtherCard::copyMac(gPB + ETH_DST_MAC, allOnes); // force broadcast mac
 8002978:	014200b4 	movhi	r5,2050
 800297c:	2968b7c4 	addi	r5,r5,-23841
 8002980:	010200b4 	movhi	r4,2050
 8002984:	21300b04 	addi	r4,r4,-16340
 8002988:	80079a00 	call	80079a0 <_ZN9EtherCard7copyMacEPhPKh>

  // Build DHCP Packet from buf[UDP_DATA_P]
  DHCPdata *dhcpPtr = (DHCPdata *)(gPB + UDP_DATA_P);
 800298c:	008200b4 	movhi	r2,2050
 8002990:	10b01584 	addi	r2,r2,-16298
 8002994:	e0bffe15 	stw	r2,-8(fp)
  dhcpPtr->op = DHCP_BOOTREQUEST;
 8002998:	e0bffe17 	ldw	r2,-8(fp)
 800299c:	00c00044 	movi	r3,1
 80029a0:	10c00005 	stb	r3,0(r2)
  dhcpPtr->htype = 1;
 80029a4:	e0bffe17 	ldw	r2,-8(fp)
 80029a8:	00c00044 	movi	r3,1
 80029ac:	10c00045 	stb	r3,1(r2)
  dhcpPtr->hlen = 6;
 80029b0:	e0bffe17 	ldw	r2,-8(fp)
 80029b4:	00c00184 	movi	r3,6
 80029b8:	10c00085 	stb	r3,2(r2)
  dhcpPtr->xid = currentXid;
 80029bc:	d0e70e17 	ldw	r3,-25544(gp)
 80029c0:	e0bffe17 	ldw	r2,-8(fp)
 80029c4:	10c00115 	stw	r3,4(r2)
  if (dhcpState == DHCP_STATE_BOUND) {
 80029c8:	d0a70d03 	ldbu	r2,-25548(gp)
 80029cc:	10803fcc 	andi	r2,r2,255
 80029d0:	108000d8 	cmpnei	r2,r2,3
 80029d4:	1000051e 	bne	r2,zero,80029ec <_ZL17send_dhcp_messagePh+0xd0>
    EtherCard::copyIp(dhcpPtr->ciaddr, EtherCard::myip);
 80029d8:	e0bffe17 	ldw	r2,-8(fp)
 80029dc:	10800304 	addi	r2,r2,12
 80029e0:	d1670444 	addi	r5,gp,-25583
 80029e4:	1009883a 	mov	r4,r2
 80029e8:	80079e00 	call	80079e0 <_ZN9EtherCard6copyIpEPhPKh>
  }
  EtherCard::copyMac(dhcpPtr->chaddr, EtherCard::mymac);
 80029ec:	e0bffe17 	ldw	r2,-8(fp)
 80029f0:	10800704 	addi	r2,r2,28
 80029f4:	d16702c4 	addi	r5,gp,-25589
 80029f8:	1009883a 	mov	r4,r2
 80029fc:	80079a00 	call	80079a0 <_ZN9EtherCard7copyMacEPhPKh>

  // options defined as option, length, value
  bufPtr = gPB + UDP_DATA_P + sizeof(DHCPdata);
 8002a00:	00c04584 	movi	r3,278
 8002a04:	008200b4 	movhi	r2,2050
 8002a08:	10b00b04 	addi	r2,r2,-16340
 8002a0c:	1885883a 	add	r2,r3,r2
 8002a10:	d0a71215 	stw	r2,-25528(gp)
  // DHCP magic cookie
  static const uint8_t cookie[] = {0x63, 0x82, 0x53, 0x63};
  for (byte i = 0; i < sizeof(cookie); i++)
 8002a14:	e03ffb05 	stb	zero,-20(fp)
 8002a18:	e0bffb03 	ldbu	r2,-20(fp)
 8002a1c:	10800128 	cmpgeui	r2,r2,4
 8002a20:	10000b1e 	bne	r2,zero,8002a50 <_ZL17send_dhcp_messagePh+0x134>
    addToBuf((unsigned char)cookie[i]);
 8002a24:	e0fffb03 	ldbu	r3,-20(fp)
 8002a28:	d0a00304 	addi	r2,gp,-32756
 8002a2c:	1885883a 	add	r2,r3,r2
 8002a30:	10800003 	ldbu	r2,0(r2)
 8002a34:	10803fcc 	andi	r2,r2,255
 8002a38:	1009883a 	mov	r4,r2
 8002a3c:	800280c0 	call	800280c <_ZL8addToBufh>

  // options defined as option, length, value
  bufPtr = gPB + UDP_DATA_P + sizeof(DHCPdata);
  // DHCP magic cookie
  static const uint8_t cookie[] = {0x63, 0x82, 0x53, 0x63};
  for (byte i = 0; i < sizeof(cookie); i++)
 8002a40:	e0bffb03 	ldbu	r2,-20(fp)
 8002a44:	10800044 	addi	r2,r2,1
 8002a48:	e0bffb05 	stb	r2,-20(fp)
 8002a4c:	003ff206 	br	8002a18 <_ZL17send_dhcp_messagePh+0xfc>
    addToBuf((unsigned char)cookie[i]);
  addToBuf(
      DHCP_OPT_MESSAGE_TYPE); // DHCP_STATE_SELECTING, DHCP_STATE_REQUESTING
 8002a50:	01000d44 	movi	r4,53
 8002a54:	800280c0 	call	800280c <_ZL8addToBufh>
  addToBuf(1);                // Length
 8002a58:	01000044 	movi	r4,1
 8002a5c:	800280c0 	call	800280c <_ZL8addToBufh>
  addToBuf(dhcpState == DHCP_STATE_INIT ? DHCP_DISCOVER : DHCP_REQUEST);
 8002a60:	d0a70d03 	ldbu	r2,-25548(gp)
 8002a64:	10803fcc 	andi	r2,r2,255
 8002a68:	1000021e 	bne	r2,zero,8002a74 <_ZL17send_dhcp_messagePh+0x158>
 8002a6c:	00800044 	movi	r2,1
 8002a70:	00000106 	br	8002a78 <_ZL17send_dhcp_messagePh+0x15c>
 8002a74:	008000c4 	movi	r2,3
 8002a78:	1009883a 	mov	r4,r2
 8002a7c:	800280c0 	call	800280c <_ZL8addToBufh>

  // Client Identifier Option, this is the client mac address
  addToBuf(DHCP_OPT_CLIENT_IDENTIFIER);
 8002a80:	01000f44 	movi	r4,61
 8002a84:	800280c0 	call	800280c <_ZL8addToBufh>
  addToBuf(1 + ETH_LEN); // Length (hardware type + client MAC)
 8002a88:	010001c4 	movi	r4,7
 8002a8c:	800280c0 	call	800280c <_ZL8addToBufh>
  addToBuf(DHCP_HTYPE_ETHER);
 8002a90:	01000044 	movi	r4,1
 8002a94:	800280c0 	call	800280c <_ZL8addToBufh>
  addBytes(ETH_LEN, EtherCard::mymac);
 8002a98:	d16702c4 	addi	r5,gp,-25589
 8002a9c:	01000184 	movi	r4,6
 8002aa0:	80028480 	call	8002848 <_ZL8addByteshPKh>

  if (hostname[0]) {
 8002aa4:	008200b4 	movhi	r2,2050
 8002aa8:	10a1ff04 	addi	r2,r2,-30724
 8002aac:	10800003 	ldbu	r2,0(r2)
 8002ab0:	10803fcc 	andi	r2,r2,255
 8002ab4:	1080201c 	xori	r2,r2,128
 8002ab8:	10bfe004 	addi	r2,r2,-128
 8002abc:	10000926 	beq	r2,zero,8002ae4 <_ZL17send_dhcp_messagePh+0x1c8>
    addOption(DHCP_OPT_HOSTNAME, strlen(hostname), (byte *)hostname);
 8002ac0:	010200b4 	movhi	r4,2050
 8002ac4:	2121ff04 	addi	r4,r4,-30724
 8002ac8:	80083940 	call	8008394 <strlen>
 8002acc:	10803fcc 	andi	r2,r2,255
 8002ad0:	018200b4 	movhi	r6,2050
 8002ad4:	31a1ff04 	addi	r6,r6,-30724
 8002ad8:	100b883a 	mov	r5,r2
 8002adc:	01000304 	movi	r4,12
 8002ae0:	80028b80 	call	80028b8 <_ZL9addOptionhhPKh>
  }

  if (requestip != NULL) {
 8002ae4:	e0bfff17 	ldw	r2,-4(fp)
 8002ae8:	10000826 	beq	r2,zero,8002b0c <_ZL17send_dhcp_messagePh+0x1f0>
    addOption(DHCP_OPT_REQUESTED_ADDRESS, IP_LEN, requestip);
 8002aec:	e1bfff17 	ldw	r6,-4(fp)
 8002af0:	01400104 	movi	r5,4
 8002af4:	01000c84 	movi	r4,50
 8002af8:	80028b80 	call	80028b8 <_ZL9addOptionhhPKh>
    addOption(DHCP_OPT_SERVER_IDENTIFIER, IP_LEN, EtherCard::dhcpip);
 8002afc:	d1a70844 	addi	r6,gp,-25567
 8002b00:	01400104 	movi	r5,4
 8002b04:	01000d84 	movi	r4,54
 8002b08:	80028b80 	call	80028b8 <_ZL9addOptionhhPKh>
  }

  // Additional info in parameter list - minimal list for what we need
  byte len = 3;
 8002b0c:	008000c4 	movi	r2,3
 8002b10:	e0bffb45 	stb	r2,-19(fp)
  if (dhcpCustomOptionList) {
 8002b14:	d0a71317 	ldw	r2,-25524(gp)
 8002b18:	10000e26 	beq	r2,zero,8002b54 <_ZL17send_dhcp_messagePh+0x238>
    uint8_t *p = dhcpCustomOptionList;
 8002b1c:	d0a71317 	ldw	r2,-25524(gp)
 8002b20:	e0bffc15 	stw	r2,-16(fp)
    while (*p++ != 0)
 8002b24:	e0bffc17 	ldw	r2,-16(fp)
 8002b28:	10c00044 	addi	r3,r2,1
 8002b2c:	e0fffc15 	stw	r3,-16(fp)
 8002b30:	10800003 	ldbu	r2,0(r2)
 8002b34:	10803fcc 	andi	r2,r2,255
 8002b38:	1004c03a 	cmpne	r2,r2,zero
 8002b3c:	10803fcc 	andi	r2,r2,255
 8002b40:	10000426 	beq	r2,zero,8002b54 <_ZL17send_dhcp_messagePh+0x238>
      len++;
 8002b44:	e0bffb43 	ldbu	r2,-19(fp)
 8002b48:	10800044 	addi	r2,r2,1
 8002b4c:	e0bffb45 	stb	r2,-19(fp)

  // Additional info in parameter list - minimal list for what we need
  byte len = 3;
  if (dhcpCustomOptionList) {
    uint8_t *p = dhcpCustomOptionList;
    while (*p++ != 0)
 8002b50:	003ff406 	br	8002b24 <_ZL17send_dhcp_messagePh+0x208>
      len++;
  }
  addToBuf(DHCP_OPT_PARAMETER_REQUEST_LIST);
 8002b54:	01000dc4 	movi	r4,55
 8002b58:	800280c0 	call	800280c <_ZL8addToBufh>
  addToBuf(len); // Length
 8002b5c:	e0bffb43 	ldbu	r2,-19(fp)
 8002b60:	1009883a 	mov	r4,r2
 8002b64:	800280c0 	call	800280c <_ZL8addToBufh>
  addToBuf(DHCP_OPT_SUBNET_MASK);
 8002b68:	01000044 	movi	r4,1
 8002b6c:	800280c0 	call	800280c <_ZL8addToBufh>
  addToBuf(DHCP_OPT_ROUTERS);
 8002b70:	010000c4 	movi	r4,3
 8002b74:	800280c0 	call	800280c <_ZL8addToBufh>
  addToBuf(DHCP_OPT_DOMAIN_NAME_SERVERS);
 8002b78:	01000184 	movi	r4,6
 8002b7c:	800280c0 	call	800280c <_ZL8addToBufh>
  if (dhcpCustomOptionList) {
 8002b80:	d0a71317 	ldw	r2,-25524(gp)
 8002b84:	10000e26 	beq	r2,zero,8002bc0 <_ZL17send_dhcp_messagePh+0x2a4>
    uint8_t *p = dhcpCustomOptionList; // Custom option list
 8002b88:	d0a71317 	ldw	r2,-25524(gp)
 8002b8c:	e0bffd15 	stw	r2,-12(fp)
    while (*p != 0) {
 8002b90:	e0bffd17 	ldw	r2,-12(fp)
 8002b94:	10800003 	ldbu	r2,0(r2)
 8002b98:	10803fcc 	andi	r2,r2,255
 8002b9c:	10000826 	beq	r2,zero,8002bc0 <_ZL17send_dhcp_messagePh+0x2a4>
      addToBuf(*p++);
 8002ba0:	e0bffd17 	ldw	r2,-12(fp)
 8002ba4:	10c00044 	addi	r3,r2,1
 8002ba8:	e0fffd15 	stw	r3,-12(fp)
 8002bac:	10800003 	ldbu	r2,0(r2)
 8002bb0:	10803fcc 	andi	r2,r2,255
 8002bb4:	1009883a 	mov	r4,r2
 8002bb8:	800280c0 	call	800280c <_ZL8addToBufh>
  addToBuf(DHCP_OPT_SUBNET_MASK);
  addToBuf(DHCP_OPT_ROUTERS);
  addToBuf(DHCP_OPT_DOMAIN_NAME_SERVERS);
  if (dhcpCustomOptionList) {
    uint8_t *p = dhcpCustomOptionList; // Custom option list
    while (*p != 0) {
 8002bbc:	003ff406 	br	8002b90 <_ZL17send_dhcp_messagePh+0x274>
      addToBuf(*p++);
    }
  }
  addToBuf(DHCP_OPT_END);
 8002bc0:	01003fc4 	movi	r4,255
 8002bc4:	800280c0 	call	800280c <_ZL8addToBufh>

  // packet size will be under 300 bytes
  EtherCard::udpTransmit((bufPtr - gPB) - UDP_DATA_P);
 8002bc8:	d0a71217 	ldw	r2,-25528(gp)
 8002bcc:	1007883a 	mov	r3,r2
 8002bd0:	008200b4 	movhi	r2,2050
 8002bd4:	10b00b04 	addi	r2,r2,-16340
 8002bd8:	1009883a 	mov	r4,r2
 8002bdc:	00bff584 	movi	r2,-42
 8002be0:	1105c83a 	sub	r2,r2,r4
 8002be4:	1885883a 	add	r2,r3,r2
 8002be8:	10bfffcc 	andi	r2,r2,65535
 8002bec:	1009883a 	mov	r4,r2
 8002bf0:	8005db80 	call	8005db8 <_ZN9EtherCard11udpTransmitEt>
}
 8002bf4:	0001883a 	nop
 8002bf8:	e037883a 	mov	sp,fp
 8002bfc:	dfc00117 	ldw	ra,4(sp)
 8002c00:	df000017 	ldw	fp,0(sp)
 8002c04:	dec00204 	addi	sp,sp,8
 8002c08:	f800283a 	ret

08002c0c <_ZL18process_dhcp_offertPh>:

static void process_dhcp_offer(uint16_t len, uint8_t *offeredip) {
 8002c0c:	defff904 	addi	sp,sp,-28
 8002c10:	dfc00615 	stw	ra,24(sp)
 8002c14:	df000515 	stw	fp,20(sp)
 8002c18:	df000504 	addi	fp,sp,20
 8002c1c:	2005883a 	mov	r2,r4
 8002c20:	e17fff15 	stw	r5,-4(fp)
 8002c24:	e0bffe0d 	sth	r2,-8(fp)
  // Map struct onto payload
  DHCPdata *dhcpPtr = (DHCPdata *)(gPB + UDP_DATA_P);
 8002c28:	008200b4 	movhi	r2,2050
 8002c2c:	10b01584 	addi	r2,r2,-16298
 8002c30:	e0bffc15 	stw	r2,-16(fp)

  // Offered IP address is in yiaddr
  EtherCard::copyIp(offeredip, dhcpPtr->yiaddr);
 8002c34:	e0bffc17 	ldw	r2,-16(fp)
 8002c38:	10800404 	addi	r2,r2,16
 8002c3c:	100b883a 	mov	r5,r2
 8002c40:	e13fff17 	ldw	r4,-4(fp)
 8002c44:	80079e00 	call	80079e0 <_ZN9EtherCard6copyIpEPhPKh>

  // Search for the server IP
  byte *ptr = (byte *)(dhcpPtr + 1) + 4;
 8002c48:	e0bffc17 	ldw	r2,-16(fp)
 8002c4c:	10803c04 	addi	r2,r2,240
 8002c50:	e0bffb15 	stw	r2,-20(fp)
  do {
    byte option = *ptr++;
 8002c54:	e0bffb17 	ldw	r2,-20(fp)
 8002c58:	10c00044 	addi	r3,r2,1
 8002c5c:	e0fffb15 	stw	r3,-20(fp)
 8002c60:	10800003 	ldbu	r2,0(r2)
 8002c64:	e0bffd05 	stb	r2,-12(fp)
    byte optionLen = *ptr++;
 8002c68:	e0bffb17 	ldw	r2,-20(fp)
 8002c6c:	10c00044 	addi	r3,r2,1
 8002c70:	e0fffb15 	stw	r3,-20(fp)
 8002c74:	10800003 	ldbu	r2,0(r2)
 8002c78:	e0bffd45 	stb	r2,-11(fp)
    if (option == DHCP_OPT_SERVER_IDENTIFIER) {
 8002c7c:	e0bffd03 	ldbu	r2,-12(fp)
 8002c80:	10800d98 	cmpnei	r2,r2,54
 8002c84:	1000051e 	bne	r2,zero,8002c9c <_ZL18process_dhcp_offertPh+0x90>
      EtherCard::copyIp(EtherCard::dhcpip, ptr);
 8002c88:	e17ffb17 	ldw	r5,-20(fp)
 8002c8c:	d1270844 	addi	r4,gp,-25567
 8002c90:	80079e00 	call	80079e0 <_ZN9EtherCard6copyIpEPhPKh>
      break;
 8002c94:	0001883a 	nop
    }
    ptr += optionLen;
  } while (ptr < gPB + len);
}
 8002c98:	00000b06 	br	8002cc8 <_ZL18process_dhcp_offertPh+0xbc>
    byte optionLen = *ptr++;
    if (option == DHCP_OPT_SERVER_IDENTIFIER) {
      EtherCard::copyIp(EtherCard::dhcpip, ptr);
      break;
    }
    ptr += optionLen;
 8002c9c:	e0bffd43 	ldbu	r2,-11(fp)
 8002ca0:	e0fffb17 	ldw	r3,-20(fp)
 8002ca4:	1885883a 	add	r2,r3,r2
 8002ca8:	e0bffb15 	stw	r2,-20(fp)
  } while (ptr < gPB + len);
 8002cac:	e0fffe0b 	ldhu	r3,-8(fp)
 8002cb0:	008200b4 	movhi	r2,2050
 8002cb4:	10b00b04 	addi	r2,r2,-16340
 8002cb8:	1885883a 	add	r2,r3,r2
 8002cbc:	e0fffb17 	ldw	r3,-20(fp)
 8002cc0:	1880012e 	bgeu	r3,r2,8002cc8 <_ZL18process_dhcp_offertPh+0xbc>
  // Offered IP address is in yiaddr
  EtherCard::copyIp(offeredip, dhcpPtr->yiaddr);

  // Search for the server IP
  byte *ptr = (byte *)(dhcpPtr + 1) + 4;
  do {
 8002cc4:	003fe306 	br	8002c54 <_ZL18process_dhcp_offertPh+0x48>
      EtherCard::copyIp(EtherCard::dhcpip, ptr);
      break;
    }
    ptr += optionLen;
  } while (ptr < gPB + len);
}
 8002cc8:	0001883a 	nop
 8002ccc:	e037883a 	mov	sp,fp
 8002cd0:	dfc00117 	ldw	ra,4(sp)
 8002cd4:	df000017 	ldw	fp,0(sp)
 8002cd8:	dec00204 	addi	sp,sp,8
 8002cdc:	f800283a 	ret

08002ce0 <_ZL16process_dhcp_ackt>:

static void process_dhcp_ack(uint16_t len) {
 8002ce0:	defff804 	addi	sp,sp,-32
 8002ce4:	dfc00715 	stw	ra,28(sp)
 8002ce8:	df000615 	stw	fp,24(sp)
 8002cec:	df000604 	addi	fp,sp,24
 8002cf0:	2005883a 	mov	r2,r4
 8002cf4:	e0bfff0d 	sth	r2,-4(fp)
  // Map struct onto payload
  DHCPdata *dhcpPtr = (DHCPdata *)(gPB + UDP_DATA_P);
 8002cf8:	008200b4 	movhi	r2,2050
 8002cfc:	10b01584 	addi	r2,r2,-16298
 8002d00:	e0bffd15 	stw	r2,-12(fp)

  // Allocated IP address is in yiaddr
  EtherCard::copyIp(EtherCard::myip, dhcpPtr->yiaddr);
 8002d04:	e0bffd17 	ldw	r2,-12(fp)
 8002d08:	10800404 	addi	r2,r2,16
 8002d0c:	100b883a 	mov	r5,r2
 8002d10:	d1270444 	addi	r4,gp,-25583
 8002d14:	80079e00 	call	80079e0 <_ZN9EtherCard6copyIpEPhPKh>

  // Scan through variable length option list identifying options we want
  byte *ptr = (byte *)(dhcpPtr + 1) + 4;
 8002d18:	e0bffd17 	ldw	r2,-12(fp)
 8002d1c:	10803c04 	addi	r2,r2,240
 8002d20:	e0bffa15 	stw	r2,-24(fp)
  bool done = false;
 8002d24:	e03ffb05 	stb	zero,-20(fp)
  do {
    byte option = *ptr++;
 8002d28:	e0bffa17 	ldw	r2,-24(fp)
 8002d2c:	10c00044 	addi	r3,r2,1
 8002d30:	e0fffa15 	stw	r3,-24(fp)
 8002d34:	10800003 	ldbu	r2,0(r2)
 8002d38:	e0bffe05 	stb	r2,-8(fp)
    byte optionLen = *ptr++;
 8002d3c:	e0bffa17 	ldw	r2,-24(fp)
 8002d40:	10c00044 	addi	r3,r2,1
 8002d44:	e0fffa15 	stw	r3,-24(fp)
 8002d48:	10800003 	ldbu	r2,0(r2)
 8002d4c:	e0bffe45 	stb	r2,-7(fp)
    switch (option) {
 8002d50:	e0bffe03 	ldbu	r2,-8(fp)
 8002d54:	10c001a0 	cmpeqi	r3,r2,6
 8002d58:	1800161e 	bne	r3,zero,8002db4 <_ZL16process_dhcp_ackt+0xd4>
 8002d5c:	10c001c8 	cmpgei	r3,r2,7
 8002d60:	1800051e 	bne	r3,zero,8002d78 <_ZL16process_dhcp_ackt+0x98>
 8002d64:	10c00060 	cmpeqi	r3,r2,1
 8002d68:	18000a1e 	bne	r3,zero,8002d94 <_ZL16process_dhcp_ackt+0xb4>
 8002d6c:	108000e0 	cmpeqi	r2,r2,3
 8002d70:	10000c1e 	bne	r2,zero,8002da4 <_ZL16process_dhcp_ackt+0xc4>
 8002d74:	00003106 	br	8002e3c <_ZL16process_dhcp_ackt+0x15c>
 8002d78:	10c00ea0 	cmpeqi	r3,r2,58
 8002d7c:	1800111e 	bne	r3,zero,8002dc4 <_ZL16process_dhcp_ackt+0xe4>
 8002d80:	10c03fe0 	cmpeqi	r3,r2,255
 8002d84:	18002a1e 	bne	r3,zero,8002e30 <_ZL16process_dhcp_ackt+0x150>
 8002d88:	10800ce0 	cmpeqi	r2,r2,51
 8002d8c:	10000d1e 	bne	r2,zero,8002dc4 <_ZL16process_dhcp_ackt+0xe4>
 8002d90:	00002a06 	br	8002e3c <_ZL16process_dhcp_ackt+0x15c>
    case DHCP_OPT_SUBNET_MASK:
      EtherCard::copyIp(EtherCard::netmask, ptr);
 8002d94:	e17ffa17 	ldw	r5,-24(fp)
 8002d98:	d1270544 	addi	r4,gp,-25579
 8002d9c:	80079e00 	call	80079e0 <_ZN9EtherCard6copyIpEPhPKh>
      break;
 8002da0:	00004006 	br	8002ea4 <_ZL16process_dhcp_ackt+0x1c4>
    case DHCP_OPT_ROUTERS:
      EtherCard::copyIp(EtherCard::gwip, ptr);
 8002da4:	e17ffa17 	ldw	r5,-24(fp)
 8002da8:	d1270744 	addi	r4,gp,-25571
 8002dac:	80079e00 	call	80079e0 <_ZN9EtherCard6copyIpEPhPKh>
      break;
 8002db0:	00003c06 	br	8002ea4 <_ZL16process_dhcp_ackt+0x1c4>
    case DHCP_OPT_DOMAIN_NAME_SERVERS:
      EtherCard::copyIp(EtherCard::dnsip, ptr);
 8002db4:	e17ffa17 	ldw	r5,-24(fp)
 8002db8:	d1270944 	addi	r4,gp,-25563
 8002dbc:	80079e00 	call	80079e0 <_ZN9EtherCard6copyIpEPhPKh>
      break;
 8002dc0:	00003806 	br	8002ea4 <_ZL16process_dhcp_ackt+0x1c4>
    case DHCP_OPT_LEASE_TIME:
    case DHCP_OPT_RENEWAL_TIME:
      leaseTime = 0;
 8002dc4:	d0271115 	stw	zero,-25532(gp)
      for (byte i = 0; i < 4; i++)
 8002dc8:	e03ffb45 	stb	zero,-19(fp)
 8002dcc:	e0bffb43 	ldbu	r2,-19(fp)
 8002dd0:	10800128 	cmpgeui	r2,r2,4
 8002dd4:	10000d1e 	bne	r2,zero,8002e0c <_ZL16process_dhcp_ackt+0x12c>
        leaseTime = (leaseTime << 8) + ptr[i];
 8002dd8:	d0a71117 	ldw	r2,-25532(gp)
 8002ddc:	1006923a 	slli	r3,r2,8
 8002de0:	e0bffb43 	ldbu	r2,-19(fp)
 8002de4:	e13ffa17 	ldw	r4,-24(fp)
 8002de8:	2085883a 	add	r2,r4,r2
 8002dec:	10800003 	ldbu	r2,0(r2)
 8002df0:	10803fcc 	andi	r2,r2,255
 8002df4:	1885883a 	add	r2,r3,r2
 8002df8:	d0a71115 	stw	r2,-25532(gp)
      EtherCard::copyIp(EtherCard::dnsip, ptr);
      break;
    case DHCP_OPT_LEASE_TIME:
    case DHCP_OPT_RENEWAL_TIME:
      leaseTime = 0;
      for (byte i = 0; i < 4; i++)
 8002dfc:	e0bffb43 	ldbu	r2,-19(fp)
 8002e00:	10800044 	addi	r2,r2,1
 8002e04:	e0bffb45 	stb	r2,-19(fp)
 8002e08:	003ff006 	br	8002dcc <_ZL16process_dhcp_ackt+0xec>
        leaseTime = (leaseTime << 8) + ptr[i];
      if (leaseTime != DHCP_INFINITE_LEASE) {
 8002e0c:	d0a71117 	ldw	r2,-25532(gp)
 8002e10:	10bfffe0 	cmpeqi	r2,r2,-1
 8002e14:	1000221e 	bne	r2,zero,8002ea0 <_ZL16process_dhcp_ackt+0x1c0>
        leaseTime *= 1000; // milliseconds
 8002e18:	d0a71117 	ldw	r2,-25532(gp)
 8002e1c:	0140fa04 	movi	r5,1000
 8002e20:	1009883a 	mov	r4,r2
 8002e24:	8007dd80 	call	8007dd8 <__mulsi3>
 8002e28:	d0a71115 	stw	r2,-25532(gp)
      }
      break;
 8002e2c:	00001c06 	br	8002ea0 <_ZL16process_dhcp_ackt+0x1c0>
    case DHCP_OPT_END:
      done = true;
 8002e30:	00800044 	movi	r2,1
 8002e34:	e0bffb05 	stb	r2,-20(fp)
      break;
 8002e38:	00001a06 	br	8002ea4 <_ZL16process_dhcp_ackt+0x1c4>
    default: {
      // Is is a custom configured option?
      if (dhcpCustomOptionList) {
 8002e3c:	d0a71317 	ldw	r2,-25524(gp)
 8002e40:	10001826 	beq	r2,zero,8002ea4 <_ZL16process_dhcp_ackt+0x1c4>
        uint8_t *p = dhcpCustomOptionList;
 8002e44:	d0a71317 	ldw	r2,-25524(gp)
 8002e48:	e0bffc15 	stw	r2,-16(fp)
        while (*p != 0) {
 8002e4c:	e0bffc17 	ldw	r2,-16(fp)
 8002e50:	10800003 	ldbu	r2,0(r2)
 8002e54:	10803fcc 	andi	r2,r2,255
 8002e58:	10001226 	beq	r2,zero,8002ea4 <_ZL16process_dhcp_ackt+0x1c4>
          if (option == *p) {
 8002e5c:	e0bffc17 	ldw	r2,-16(fp)
 8002e60:	10800003 	ldbu	r2,0(r2)
 8002e64:	10c03fcc 	andi	r3,r2,255
 8002e68:	e0bffe03 	ldbu	r2,-8(fp)
 8002e6c:	1880081e 	bne	r3,r2,8002e90 <_ZL16process_dhcp_ackt+0x1b0>
            dhcpCustomOptionCallback(option, ptr, optionLen);
 8002e70:	d0a71417 	ldw	r2,-25520(gp)
 8002e74:	e0fffe03 	ldbu	r3,-8(fp)
 8002e78:	e13ffe43 	ldbu	r4,-7(fp)
 8002e7c:	200d883a 	mov	r6,r4
 8002e80:	e17ffa17 	ldw	r5,-24(fp)
 8002e84:	1809883a 	mov	r4,r3
 8002e88:	103ee83a 	callr	r2
            break;
 8002e8c:	00000506 	br	8002ea4 <_ZL16process_dhcp_ackt+0x1c4>
          }
          p++;
 8002e90:	e0bffc17 	ldw	r2,-16(fp)
 8002e94:	10800044 	addi	r2,r2,1
 8002e98:	e0bffc15 	stw	r2,-16(fp)
      break;
    default: {
      // Is is a custom configured option?
      if (dhcpCustomOptionList) {
        uint8_t *p = dhcpCustomOptionList;
        while (*p != 0) {
 8002e9c:	003feb06 	br	8002e4c <_ZL16process_dhcp_ackt+0x16c>
      for (byte i = 0; i < 4; i++)
        leaseTime = (leaseTime << 8) + ptr[i];
      if (leaseTime != DHCP_INFINITE_LEASE) {
        leaseTime *= 1000; // milliseconds
      }
      break;
 8002ea0:	0001883a 	nop
          p++;
        }
      }
    }
    }
    ptr += optionLen;
 8002ea4:	e0bffe43 	ldbu	r2,-7(fp)
 8002ea8:	e0fffa17 	ldw	r3,-24(fp)
 8002eac:	1885883a 	add	r2,r3,r2
 8002eb0:	e0bffa15 	stw	r2,-24(fp)
  } while (!done && ptr < gPB + len);
 8002eb4:	e0bffb03 	ldbu	r2,-20(fp)
 8002eb8:	1000071e 	bne	r2,zero,8002ed8 <_ZL16process_dhcp_ackt+0x1f8>
 8002ebc:	e0ffff0b 	ldhu	r3,-4(fp)
 8002ec0:	008200b4 	movhi	r2,2050
 8002ec4:	10b00b04 	addi	r2,r2,-16340
 8002ec8:	1885883a 	add	r2,r3,r2
 8002ecc:	e0fffa17 	ldw	r3,-24(fp)
 8002ed0:	1880012e 	bgeu	r3,r2,8002ed8 <_ZL16process_dhcp_ackt+0x1f8>
  EtherCard::copyIp(EtherCard::myip, dhcpPtr->yiaddr);

  // Scan through variable length option list identifying options we want
  byte *ptr = (byte *)(dhcpPtr + 1) + 4;
  bool done = false;
  do {
 8002ed4:	003f9406 	br	8002d28 <_ZL16process_dhcp_ackt+0x48>
      }
    }
    }
    ptr += optionLen;
  } while (!done && ptr < gPB + len);
}
 8002ed8:	0001883a 	nop
 8002edc:	e037883a 	mov	sp,fp
 8002ee0:	dfc00117 	ldw	ra,4(sp)
 8002ee4:	df000017 	ldw	fp,0(sp)
 8002ee8:	dec00204 	addi	sp,sp,8
 8002eec:	f800283a 	ret

08002ef0 <_ZL26dhcp_received_message_typeth>:

static bool dhcp_received_message_type(uint16_t len, byte msgType) {
 8002ef0:	defff904 	addi	sp,sp,-28
 8002ef4:	dfc00615 	stw	ra,24(sp)
 8002ef8:	df000515 	stw	fp,20(sp)
 8002efc:	df000504 	addi	fp,sp,20
 8002f00:	2007883a 	mov	r3,r4
 8002f04:	2805883a 	mov	r2,r5
 8002f08:	e0fffe0d 	sth	r3,-8(fp)
 8002f0c:	e0bfff05 	stb	r2,-4(fp)
  // Map struct onto payload
  DHCPdata *dhcpPtr = (DHCPdata *)(gPB + UDP_DATA_P);
 8002f10:	008200b4 	movhi	r2,2050
 8002f14:	10b01584 	addi	r2,r2,-16298
 8002f18:	e0bffc15 	stw	r2,-16(fp)

  if (len >= 70 && gPB[UDP_SRC_PORT_L_P] == DHCP_SERVER_PORT &&
 8002f1c:	e0bffe0b 	ldhu	r2,-8(fp)
 8002f20:	108011b0 	cmpltui	r2,r2,70
 8002f24:	1000381e 	bne	r2,zero,8003008 <_ZL26dhcp_received_message_typeth+0x118>
 8002f28:	008200b4 	movhi	r2,2050
 8002f2c:	10b00b04 	addi	r2,r2,-16340
 8002f30:	108008c3 	ldbu	r2,35(r2)
 8002f34:	10803fcc 	andi	r2,r2,255
 8002f38:	108010d8 	cmpnei	r2,r2,67
 8002f3c:	1000321e 	bne	r2,zero,8003008 <_ZL26dhcp_received_message_typeth+0x118>
      dhcpPtr->xid == currentXid) {
 8002f40:	e0bffc17 	ldw	r2,-16(fp)
 8002f44:	10c00117 	ldw	r3,4(r2)
 8002f48:	d0a70e17 	ldw	r2,-25544(gp)

static bool dhcp_received_message_type(uint16_t len, byte msgType) {
  // Map struct onto payload
  DHCPdata *dhcpPtr = (DHCPdata *)(gPB + UDP_DATA_P);

  if (len >= 70 && gPB[UDP_SRC_PORT_L_P] == DHCP_SERVER_PORT &&
 8002f4c:	18802e1e 	bne	r3,r2,8003008 <_ZL26dhcp_received_message_typeth+0x118>
      dhcpPtr->xid == currentXid) {

    byte *ptr = (byte *)(dhcpPtr + 1) + 4;
 8002f50:	e0bffc17 	ldw	r2,-16(fp)
 8002f54:	10803c04 	addi	r2,r2,240
 8002f58:	e0bffb15 	stw	r2,-20(fp)
    do {
      byte option = *ptr++;
 8002f5c:	e0bffb17 	ldw	r2,-20(fp)
 8002f60:	10c00044 	addi	r3,r2,1
 8002f64:	e0fffb15 	stw	r3,-20(fp)
 8002f68:	10800003 	ldbu	r2,0(r2)
 8002f6c:	e0bffd05 	stb	r2,-12(fp)
      byte optionLen = *ptr++;
 8002f70:	e0bffb17 	ldw	r2,-20(fp)
 8002f74:	10c00044 	addi	r3,r2,1
 8002f78:	e0fffb15 	stw	r3,-20(fp)
 8002f7c:	10800003 	ldbu	r2,0(r2)
 8002f80:	e0bffd45 	stb	r2,-11(fp)
      printf("option: %x, msg: %x\n", option, *ptr);
 8002f84:	e0fffd03 	ldbu	r3,-12(fp)
 8002f88:	e0bffb17 	ldw	r2,-20(fp)
 8002f8c:	10800003 	ldbu	r2,0(r2)
 8002f90:	10803fcc 	andi	r2,r2,255
 8002f94:	100d883a 	mov	r6,r2
 8002f98:	180b883a 	mov	r5,r3
 8002f9c:	010200b4 	movhi	r4,2050
 8002fa0:	21209604 	addi	r4,r4,-32168
 8002fa4:	80081d40 	call	80081d4 <printf>
      if (option == DHCP_OPT_MESSAGE_TYPE && *ptr == msgType) {
 8002fa8:	e0bffd03 	ldbu	r2,-12(fp)
 8002fac:	10800d58 	cmpnei	r2,r2,53
 8002fb0:	10000a1e 	bne	r2,zero,8002fdc <_ZL26dhcp_received_message_typeth+0xec>
 8002fb4:	e0bffb17 	ldw	r2,-20(fp)
 8002fb8:	10800003 	ldbu	r2,0(r2)
 8002fbc:	10c03fcc 	andi	r3,r2,255
 8002fc0:	e0bfff03 	ldbu	r2,-4(fp)
 8002fc4:	1880051e 	bne	r3,r2,8002fdc <_ZL26dhcp_received_message_typeth+0xec>
        printf("returning true in received message\n");
 8002fc8:	010200b4 	movhi	r4,2050
 8002fcc:	21209c04 	addi	r4,r4,-32144
 8002fd0:	80082f00 	call	80082f0 <puts>
        return true;
 8002fd4:	00800044 	movi	r2,1
 8002fd8:	00000c06 	br	800300c <_ZL26dhcp_received_message_typeth+0x11c>
      }
      ptr += optionLen;
 8002fdc:	e0bffd43 	ldbu	r2,-11(fp)
 8002fe0:	e0fffb17 	ldw	r3,-20(fp)
 8002fe4:	1885883a 	add	r2,r3,r2
 8002fe8:	e0bffb15 	stw	r2,-20(fp)
    } while (ptr < gPB + len);
 8002fec:	e0fffe0b 	ldhu	r3,-8(fp)
 8002ff0:	008200b4 	movhi	r2,2050
 8002ff4:	10b00b04 	addi	r2,r2,-16340
 8002ff8:	1885883a 	add	r2,r3,r2
 8002ffc:	e0fffb17 	ldw	r3,-20(fp)
 8003000:	1880012e 	bgeu	r3,r2,8003008 <_ZL26dhcp_received_message_typeth+0x118>

  if (len >= 70 && gPB[UDP_SRC_PORT_L_P] == DHCP_SERVER_PORT &&
      dhcpPtr->xid == currentXid) {

    byte *ptr = (byte *)(dhcpPtr + 1) + 4;
    do {
 8003004:	003fd506 	br	8002f5c <_ZL26dhcp_received_message_typeth+0x6c>
        return true;
      }
      ptr += optionLen;
    } while (ptr < gPB + len);
  }
  return false;
 8003008:	0005883a 	mov	r2,zero
}
 800300c:	e037883a 	mov	sp,fp
 8003010:	dfc00117 	ldw	ra,4(sp)
 8003014:	df000017 	ldw	fp,0(sp)
 8003018:	dec00204 	addi	sp,sp,8
 800301c:	f800283a 	ret

08003020 <_ZL10toAsciiHexh>:

static char toAsciiHex(byte b) {
 8003020:	defffd04 	addi	sp,sp,-12
 8003024:	df000215 	stw	fp,8(sp)
 8003028:	df000204 	addi	fp,sp,8
 800302c:	2005883a 	mov	r2,r4
 8003030:	e0bfff05 	stb	r2,-4(fp)
  char c = b & 0x0f;
 8003034:	e0bfff03 	ldbu	r2,-4(fp)
 8003038:	108003cc 	andi	r2,r2,15
 800303c:	e0bffe05 	stb	r2,-8(fp)
  c += (c <= 9) ? '0' : 'A' - 10;
 8003040:	e0bffe07 	ldb	r2,-8(fp)
 8003044:	10800288 	cmpgei	r2,r2,10
 8003048:	1000021e 	bne	r2,zero,8003054 <_ZL10toAsciiHexh+0x34>
 800304c:	00800c04 	movi	r2,48
 8003050:	00000106 	br	8003058 <_ZL10toAsciiHexh+0x38>
 8003054:	00800dc4 	movi	r2,55
 8003058:	e0fffe03 	ldbu	r3,-8(fp)
 800305c:	10c5883a 	add	r2,r2,r3
 8003060:	e0bffe05 	stb	r2,-8(fp)
  return c;
 8003064:	e0bffe03 	ldbu	r2,-8(fp)
}
 8003068:	e037883a 	mov	sp,fp
 800306c:	df000017 	ldw	fp,0(sp)
 8003070:	dec00104 	addi	sp,sp,4
 8003074:	f800283a 	ret

08003078 <_ZN9EtherCard9dhcpSetupEPKcb>:

bool EtherCard::dhcpSetup(const char *hname, bool fromRam) {
 8003078:	defffa04 	addi	sp,sp,-24
 800307c:	dfc00515 	stw	ra,20(sp)
 8003080:	df000415 	stw	fp,16(sp)
 8003084:	dc000315 	stw	r16,12(sp)
 8003088:	df000404 	addi	fp,sp,16
 800308c:	e13ffd15 	stw	r4,-12(fp)
 8003090:	2805883a 	mov	r2,r5
 8003094:	e0bffe05 	stb	r2,-8(fp)
  // Use during setup, as this discards all incoming requests until it returns.
  // That shouldn't be a problem, because we don't have an IPaddress yet.
  // Will try 60 secs to obtain DHCP-lease.

  using_dhcp = true;
 8003098:	00800044 	movi	r2,1
 800309c:	d0a70b45 	stb	r2,-25555(gp)

  if (hname != NULL) {
 80030a0:	e0bffd17 	ldw	r2,-12(fp)
 80030a4:	10000c26 	beq	r2,zero,80030d8 <_ZN9EtherCard9dhcpSetupEPKcb+0x60>
    if (fromRam) {
 80030a8:	e0bffe03 	ldbu	r2,-8(fp)
 80030ac:	10000626 	beq	r2,zero,80030c8 <_ZN9EtherCard9dhcpSetupEPKcb+0x50>
      strncpy(hostname, hname, DHCP_HOSTNAME_MAX_LEN);
 80030b0:	01800804 	movi	r6,32
 80030b4:	e17ffd17 	ldw	r5,-12(fp)
 80030b8:	010200b4 	movhi	r4,2050
 80030bc:	2121ff04 	addi	r4,r4,-30724
 80030c0:	80084fc0 	call	80084fc <strncpy>
 80030c4:	00002006 	br	8003148 <_ZN9EtherCard9dhcpSetupEPKcb+0xd0>
    } else {
      printf("BAD THING HAPPENED IN dhcpSetup\n");
 80030c8:	010200b4 	movhi	r4,2050
 80030cc:	2120a504 	addi	r4,r4,-32108
 80030d0:	80082f00 	call	80082f0 <puts>
 80030d4:	00001c06 	br	8003148 <_ZN9EtherCard9dhcpSetupEPKcb+0xd0>
    }
  } else {
    // Set a unique hostname, use Arduino-?? with last octet of mac address
    hostname[strlen(hostname) - 2] = toAsciiHex(
 80030d8:	010200b4 	movhi	r4,2050
 80030dc:	2121ff04 	addi	r4,r4,-30724
 80030e0:	80083940 	call	8008394 <strlen>
 80030e4:	143fff84 	addi	r16,r2,-2
        mymac[5] >> 4); // Appends mac to last 2 digits of the hostname
 80030e8:	d0a70403 	ldbu	r2,-25584(gp)
 80030ec:	10803fcc 	andi	r2,r2,255
 80030f0:	1005d13a 	srai	r2,r2,4
    } else {
      printf("BAD THING HAPPENED IN dhcpSetup\n");
    }
  } else {
    // Set a unique hostname, use Arduino-?? with last octet of mac address
    hostname[strlen(hostname) - 2] = toAsciiHex(
 80030f4:	10803fcc 	andi	r2,r2,255
 80030f8:	1009883a 	mov	r4,r2
 80030fc:	80030200 	call	8003020 <_ZL10toAsciiHexh>
 8003100:	1007883a 	mov	r3,r2
        mymac[5] >> 4); // Appends mac to last 2 digits of the hostname
 8003104:	008200b4 	movhi	r2,2050
 8003108:	10a1ff04 	addi	r2,r2,-30724
 800310c:	1405883a 	add	r2,r2,r16
 8003110:	10c00005 	stb	r3,0(r2)
    hostname[strlen(hostname) - 1] =
 8003114:	010200b4 	movhi	r4,2050
 8003118:	2121ff04 	addi	r4,r4,-30724
 800311c:	80083940 	call	8008394 <strlen>
 8003120:	143fffc4 	addi	r16,r2,-1
        toAsciiHex(mymac[5]); // Even if it's smaller than the maximum <thus,
 8003124:	d0a70403 	ldbu	r2,-25584(gp)
 8003128:	10803fcc 	andi	r2,r2,255
 800312c:	1009883a 	mov	r4,r2
 8003130:	80030200 	call	8003020 <_ZL10toAsciiHexh>
 8003134:	1007883a 	mov	r3,r2
 8003138:	008200b4 	movhi	r2,2050
 800313c:	10a1ff04 	addi	r2,r2,-30724
 8003140:	1405883a 	add	r2,r2,r16
 8003144:	10c00005 	stb	r3,0(r2)
                              // strlen(hostname)>
  }

  dhcpState = DHCP_STATE_INIT;
 8003148:	d0270d05 	stb	zero,-25548(gp)
  uint16_t start = millis();
 800314c:	80027e40 	call	80027e4 <_Z6millisv>
 8003150:	e0bffc0d 	sth	r2,-16(fp)

  while (dhcpState != DHCP_STATE_BOUND && uint16_t(millis()) - start < 60000) {
 8003154:	d0a70d03 	ldbu	r2,-25548(gp)
 8003158:	10803fcc 	andi	r2,r2,255
 800315c:	108000e0 	cmpeqi	r2,r2,3
 8003160:	1000081e 	bne	r2,zero,8003184 <_ZN9EtherCard9dhcpSetupEPKcb+0x10c>
 8003164:	80027e40 	call	80027e4 <_Z6millisv>
 8003168:	10ffffcc 	andi	r3,r2,65535
 800316c:	e0bffc0b 	ldhu	r2,-16(fp)
 8003170:	1885c83a 	sub	r2,r3,r2
 8003174:	00fa97d4 	movui	r3,59999
 8003178:	18800216 	blt	r3,r2,8003184 <_ZN9EtherCard9dhcpSetupEPKcb+0x10c>
 800317c:	00800044 	movi	r2,1
 8003180:	00000106 	br	8003188 <_ZN9EtherCard9dhcpSetupEPKcb+0x110>
 8003184:	0005883a 	mov	r2,zero
 8003188:	10803fcc 	andi	r2,r2,255
 800318c:	10000826 	beq	r2,zero,80031b0 <_ZN9EtherCard9dhcpSetupEPKcb+0x138>
    if (isLinkUp()) {
 8003190:	80041c40 	call	80041c4 <_ZN8ENC28J608isLinkUpEv>
 8003194:	10803fcc 	andi	r2,r2,255
 8003198:	103fee26 	beq	r2,zero,8003154 <_ZN9EtherCard9dhcpSetupEPKcb+0xdc>
      DhcpStateMachine(packetReceive());
 800319c:	80044540 	call	8004454 <_ZN8ENC28J6013packetReceiveEv>
 80031a0:	10bfffcc 	andi	r2,r2,65535
 80031a4:	1009883a 	mov	r4,r2
 80031a8:	80032880 	call	8003288 <_ZN9EtherCard16DhcpStateMachineEt>
  }

  dhcpState = DHCP_STATE_INIT;
  uint16_t start = millis();

  while (dhcpState != DHCP_STATE_BOUND && uint16_t(millis()) - start < 60000) {
 80031ac:	003fe906 	br	8003154 <_ZN9EtherCard9dhcpSetupEPKcb+0xdc>
    if (isLinkUp()) {
      DhcpStateMachine(packetReceive());
    }
  }
  updateBroadcastAddress();
 80031b0:	80062b40 	call	80062b4 <_ZN9EtherCard22updateBroadcastAddressEv>
  delaycnt = 0;
 80031b4:	d0270c0d 	sth	zero,-25552(gp)
  printf("Finished dhcpSetup... returning %d (%d)\n",
 80031b8:	d0a70d03 	ldbu	r2,-25548(gp)
 80031bc:	10803fcc 	andi	r2,r2,255
 80031c0:	108000e0 	cmpeqi	r2,r2,3
 80031c4:	10803fcc 	andi	r2,r2,255
 80031c8:	d0e70d03 	ldbu	r3,-25548(gp)
 80031cc:	18c03fcc 	andi	r3,r3,255
         (dhcpState == DHCP_STATE_BOUND), dhcpState);
 80031d0:	180d883a 	mov	r6,r3
 80031d4:	100b883a 	mov	r5,r2
 80031d8:	010200b4 	movhi	r4,2050
 80031dc:	2120ad04 	addi	r4,r4,-32076
 80031e0:	80081d40 	call	80081d4 <printf>
  return dhcpState == DHCP_STATE_BOUND;
 80031e4:	d0a70d03 	ldbu	r2,-25548(gp)
 80031e8:	10803fcc 	andi	r2,r2,255
 80031ec:	108000e0 	cmpeqi	r2,r2,3
}
 80031f0:	e6ffff04 	addi	sp,fp,-4
 80031f4:	dfc00217 	ldw	ra,8(sp)
 80031f8:	df000117 	ldw	fp,4(sp)
 80031fc:	dc000017 	ldw	r16,0(sp)
 8003200:	dec00304 	addi	sp,sp,12
 8003204:	f800283a 	ret

08003208 <_ZN9EtherCard21dhcpAddOptionCallbackEhPFvhPKhhE>:

void EtherCard::dhcpAddOptionCallback(uint8_t option,
                                      DhcpOptionCallback callback) {
 8003208:	defffd04 	addi	sp,sp,-12
 800320c:	df000215 	stw	fp,8(sp)
 8003210:	df000204 	addi	fp,sp,8
 8003214:	2005883a 	mov	r2,r4
 8003218:	e17fff15 	stw	r5,-4(fp)
 800321c:	e0bffe05 	stb	r2,-8(fp)
  static uint8_t optionList[2];
  optionList[0] = option;
 8003220:	e0bffe03 	ldbu	r2,-8(fp)
 8003224:	d0a71505 	stb	r2,-25516(gp)
  optionList[1] = 0;
 8003228:	d0271545 	stb	zero,-25515(gp)
  dhcpCustomOptionList = optionList;
 800322c:	d0a71504 	addi	r2,gp,-25516
 8003230:	d0a71315 	stw	r2,-25524(gp)
  dhcpCustomOptionCallback = callback;
 8003234:	e0bfff17 	ldw	r2,-4(fp)
 8003238:	d0a71415 	stw	r2,-25520(gp)
}
 800323c:	0001883a 	nop
 8003240:	e037883a 	mov	sp,fp
 8003244:	df000017 	ldw	fp,0(sp)
 8003248:	dec00104 	addi	sp,sp,4
 800324c:	f800283a 	ret

08003250 <_ZN9EtherCard21dhcpAddOptionCallbackEPhPFvhPKhhE>:

void EtherCard::dhcpAddOptionCallback(uint8_t *optionlist,
                                      DhcpOptionCallback callback) {
 8003250:	defffd04 	addi	sp,sp,-12
 8003254:	df000215 	stw	fp,8(sp)
 8003258:	df000204 	addi	fp,sp,8
 800325c:	e13ffe15 	stw	r4,-8(fp)
 8003260:	e17fff15 	stw	r5,-4(fp)
  dhcpCustomOptionList = optionlist;
 8003264:	e0bffe17 	ldw	r2,-8(fp)
 8003268:	d0a71315 	stw	r2,-25524(gp)
  dhcpCustomOptionCallback = callback;
 800326c:	e0bfff17 	ldw	r2,-4(fp)
 8003270:	d0a71415 	stw	r2,-25520(gp)
}
 8003274:	0001883a 	nop
 8003278:	e037883a 	mov	sp,fp
 800327c:	df000017 	ldw	fp,0(sp)
 8003280:	dec00104 	addi	sp,sp,4
 8003284:	f800283a 	ret

08003288 <_ZN9EtherCard16DhcpStateMachineEt>:

void EtherCard::DhcpStateMachine(uint16_t len) {
 8003288:	defffc04 	addi	sp,sp,-16
 800328c:	dfc00315 	stw	ra,12(sp)
 8003290:	df000215 	stw	fp,8(sp)
 8003294:	df000204 	addi	fp,sp,8
 8003298:	2005883a 	mov	r2,r4
 800329c:	e0bfff0d 	sth	r2,-4(fp)
    printf("Renew\n");
    break;
  }
#endif

  switch (dhcpState) {
 80032a0:	d0a70d03 	ldbu	r2,-25548(gp)
 80032a4:	10803fcc 	andi	r2,r2,255
 80032a8:	10c00168 	cmpgeui	r3,r2,5
 80032ac:	18006c1e 	bne	r3,zero,8003460 <_ZN9EtherCard16DhcpStateMachineEt+0x1d8>
 80032b0:	100690ba 	slli	r3,r2,2
 80032b4:	00820034 	movhi	r2,2048
 80032b8:	108cb204 	addi	r2,r2,13000
 80032bc:	1885883a 	add	r2,r3,r2
 80032c0:	10800017 	ldw	r2,0(r2)
 80032c4:	1000683a 	jmp	r2
 80032c8:	08003330 	cmpltui	zero,at,204
 80032cc:	0800336c 	andhi	zero,at,205
 80032d0:	080033d4 	ori	zero,at,207
 80032d4:	080032dc 	xori	zero,at,203
 80032d8:	080033d4 	ori	zero,at,207

  case DHCP_STATE_BOUND:
    //!@todo Due to millis() wrap-around, DHCP renewal may not work if leaseTime
    //!is larger than 49days
    if (leaseTime != DHCP_INFINITE_LEASE &&
 80032dc:	d0a71117 	ldw	r2,-25532(gp)
 80032e0:	10bfffe0 	cmpeqi	r2,r2,-1
 80032e4:	1000081e 	bne	r2,zero,8003308 <_ZN9EtherCard16DhcpStateMachineEt+0x80>
        millis() - leaseStart >= leaseTime) {
 80032e8:	80027e40 	call	80027e4 <_Z6millisv>
 80032ec:	1007883a 	mov	r3,r2
 80032f0:	d0a71017 	ldw	r2,-25536(gp)
 80032f4:	1887c83a 	sub	r3,r3,r2
 80032f8:	d0a71117 	ldw	r2,-25532(gp)
  switch (dhcpState) {

  case DHCP_STATE_BOUND:
    //!@todo Due to millis() wrap-around, DHCP renewal may not work if leaseTime
    //!is larger than 49days
    if (leaseTime != DHCP_INFINITE_LEASE &&
 80032fc:	18800236 	bltu	r3,r2,8003308 <_ZN9EtherCard16DhcpStateMachineEt+0x80>
 8003300:	00800044 	movi	r2,1
 8003304:	00000106 	br	800330c <_ZN9EtherCard16DhcpStateMachineEt+0x84>
 8003308:	0005883a 	mov	r2,zero
 800330c:	10803fcc 	andi	r2,r2,255
 8003310:	10004e26 	beq	r2,zero,800344c <_ZN9EtherCard16DhcpStateMachineEt+0x1c4>
        millis() - leaseStart >= leaseTime) {
      send_dhcp_message(myip);
 8003314:	d1270444 	addi	r4,gp,-25583
 8003318:	800291c0 	call	800291c <_ZL17send_dhcp_messagePh>
      dhcpState = DHCP_STATE_RENEWING;
 800331c:	00800104 	movi	r2,4
 8003320:	d0a70d05 	stb	r2,-25548(gp)
      stateTimer = millis();
 8003324:	80027e40 	call	80027e4 <_Z6millisv>
 8003328:	d0a70f15 	stw	r2,-25540(gp)
    }
    break;
 800332c:	00004706 	br	800344c <_ZN9EtherCard16DhcpStateMachineEt+0x1c4>

  case DHCP_STATE_INIT:
    currentXid = millis();
 8003330:	80027e40 	call	80027e4 <_Z6millisv>
 8003334:	d0a70e15 	stw	r2,-25544(gp)
    memset(myip, 0, IP_LEN); // force ip 0.0.0.0
 8003338:	01800104 	movi	r6,4
 800333c:	000b883a 	mov	r5,zero
 8003340:	d1270444 	addi	r4,gp,-25583
 8003344:	800807c0 	call	800807c <memset>
    send_dhcp_message(NULL);
 8003348:	0009883a 	mov	r4,zero
 800334c:	800291c0 	call	800291c <_ZL17send_dhcp_messagePh>
    enableBroadcast(true); // Temporarily enable broadcasts
 8003350:	01000044 	movi	r4,1
 8003354:	80046e80 	call	80046e8 <_ZN8ENC28J6015enableBroadcastEb>
    dhcpState = DHCP_STATE_SELECTING;
 8003358:	00800044 	movi	r2,1
 800335c:	d0a70d05 	stb	r2,-25548(gp)
    stateTimer = millis();
 8003360:	80027e40 	call	80027e4 <_Z6millisv>
 8003364:	d0a70f15 	stw	r2,-25540(gp)
    break;
 8003368:	00003d06 	br	8003460 <_ZN9EtherCard16DhcpStateMachineEt+0x1d8>

  case DHCP_STATE_SELECTING:
    if (dhcp_received_message_type(len, DHCP_OFFER)) {
 800336c:	e0bfff0b 	ldhu	r2,-4(fp)
 8003370:	01400084 	movi	r5,2
 8003374:	1009883a 	mov	r4,r2
 8003378:	8002ef00 	call	8002ef0 <_ZL26dhcp_received_message_typeth>
 800337c:	10803fcc 	andi	r2,r2,255
 8003380:	10000b26 	beq	r2,zero,80033b0 <_ZN9EtherCard16DhcpStateMachineEt+0x128>
      uint8_t offeredip[IP_LEN];
      process_dhcp_offer(len, offeredip);
 8003384:	e0bfff0b 	ldhu	r2,-4(fp)
 8003388:	e17ffe04 	addi	r5,fp,-8
 800338c:	1009883a 	mov	r4,r2
 8003390:	8002c0c0 	call	8002c0c <_ZL18process_dhcp_offertPh>
      send_dhcp_message(offeredip);
 8003394:	e13ffe04 	addi	r4,fp,-8
 8003398:	800291c0 	call	800291c <_ZL17send_dhcp_messagePh>
      dhcpState = DHCP_STATE_REQUESTING;
 800339c:	00800084 	movi	r2,2
 80033a0:	d0a70d05 	stb	r2,-25548(gp)
      stateTimer = millis();
 80033a4:	80027e40 	call	80027e4 <_Z6millisv>
 80033a8:	d0a70f15 	stw	r2,-25540(gp)
    } else {
      if (millis() - stateTimer > DHCP_REQUEST_TIMEOUT) {
        dhcpState = DHCP_STATE_INIT;
      }
    }
    break;
 80033ac:	00002906 	br	8003454 <_ZN9EtherCard16DhcpStateMachineEt+0x1cc>
      process_dhcp_offer(len, offeredip);
      send_dhcp_message(offeredip);
      dhcpState = DHCP_STATE_REQUESTING;
      stateTimer = millis();
    } else {
      if (millis() - stateTimer > DHCP_REQUEST_TIMEOUT) {
 80033b0:	80027e40 	call	80027e4 <_Z6millisv>
 80033b4:	1007883a 	mov	r3,r2
 80033b8:	d0a70f17 	ldw	r2,-25540(gp)
 80033bc:	1885c83a 	sub	r2,r3,r2
 80033c0:	1089c468 	cmpgeui	r2,r2,10001
 80033c4:	10803fcc 	andi	r2,r2,255
 80033c8:	10002226 	beq	r2,zero,8003454 <_ZN9EtherCard16DhcpStateMachineEt+0x1cc>
        dhcpState = DHCP_STATE_INIT;
 80033cc:	d0270d05 	stb	zero,-25548(gp)
      }
    }
    break;
 80033d0:	00002006 	br	8003454 <_ZN9EtherCard16DhcpStateMachineEt+0x1cc>

  case DHCP_STATE_REQUESTING:
  case DHCP_STATE_RENEWING:
    if (dhcp_received_message_type(len, DHCP_ACK)) {
 80033d4:	e0bfff0b 	ldhu	r2,-4(fp)
 80033d8:	01400144 	movi	r5,5
 80033dc:	1009883a 	mov	r4,r2
 80033e0:	8002ef00 	call	8002ef0 <_ZL26dhcp_received_message_typeth>
 80033e4:	10803fcc 	andi	r2,r2,255
 80033e8:	10000f26 	beq	r2,zero,8003428 <_ZN9EtherCard16DhcpStateMachineEt+0x1a0>
      disableBroadcast(true); // Disable broadcast after temporary enable
 80033ec:	01000044 	movi	r4,1
 80033f0:	800474c0 	call	800474c <_ZN8ENC28J6016disableBroadcastEb>
      process_dhcp_ack(len);
 80033f4:	e0bfff0b 	ldhu	r2,-4(fp)
 80033f8:	1009883a 	mov	r4,r2
 80033fc:	8002ce00 	call	8002ce0 <_ZL16process_dhcp_ackt>
      leaseStart = millis();
 8003400:	80027e40 	call	80027e4 <_Z6millisv>
 8003404:	d0a71015 	stw	r2,-25536(gp)
      if (gwip[0] != 0)
 8003408:	d0a70743 	ldbu	r2,-25571(gp)
 800340c:	10803fcc 	andi	r2,r2,255
 8003410:	10000226 	beq	r2,zero,800341c <_ZN9EtherCard16DhcpStateMachineEt+0x194>
        setGwIp(gwip); // why is this? because it initiates an arp request
 8003414:	d1270744 	addi	r4,gp,-25571
 8003418:	80062700 	call	8006270 <_ZN9EtherCard7setGwIpEPKh>
      dhcpState = DHCP_STATE_BOUND;
 800341c:	008000c4 	movi	r2,3
 8003420:	d0a70d05 	stb	r2,-25548(gp)
    } else {
      if (millis() - stateTimer > DHCP_REQUEST_TIMEOUT) {
        dhcpState = DHCP_STATE_INIT;
      }
    }
    break;
 8003424:	00000d06 	br	800345c <_ZN9EtherCard16DhcpStateMachineEt+0x1d4>
      leaseStart = millis();
      if (gwip[0] != 0)
        setGwIp(gwip); // why is this? because it initiates an arp request
      dhcpState = DHCP_STATE_BOUND;
    } else {
      if (millis() - stateTimer > DHCP_REQUEST_TIMEOUT) {
 8003428:	80027e40 	call	80027e4 <_Z6millisv>
 800342c:	1007883a 	mov	r3,r2
 8003430:	d0a70f17 	ldw	r2,-25540(gp)
 8003434:	1885c83a 	sub	r2,r3,r2
 8003438:	1089c468 	cmpgeui	r2,r2,10001
 800343c:	10803fcc 	andi	r2,r2,255
 8003440:	10000626 	beq	r2,zero,800345c <_ZN9EtherCard16DhcpStateMachineEt+0x1d4>
        dhcpState = DHCP_STATE_INIT;
 8003444:	d0270d05 	stb	zero,-25548(gp)
      }
    }
    break;
 8003448:	00000406 	br	800345c <_ZN9EtherCard16DhcpStateMachineEt+0x1d4>
        millis() - leaseStart >= leaseTime) {
      send_dhcp_message(myip);
      dhcpState = DHCP_STATE_RENEWING;
      stateTimer = millis();
    }
    break;
 800344c:	0001883a 	nop
 8003450:	00000306 	br	8003460 <_ZN9EtherCard16DhcpStateMachineEt+0x1d8>
    } else {
      if (millis() - stateTimer > DHCP_REQUEST_TIMEOUT) {
        dhcpState = DHCP_STATE_INIT;
      }
    }
    break;
 8003454:	0001883a 	nop
 8003458:	00000106 	br	8003460 <_ZN9EtherCard16DhcpStateMachineEt+0x1d8>
    } else {
      if (millis() - stateTimer > DHCP_REQUEST_TIMEOUT) {
        dhcpState = DHCP_STATE_INIT;
      }
    }
    break;
 800345c:	0001883a 	nop
  }
}
 8003460:	0001883a 	nop
 8003464:	e037883a 	mov	sp,fp
 8003468:	dfc00117 	ldw	ra,4(sp)
 800346c:	df000017 	ldw	fp,0(sp)
 8003470:	dec00204 	addi	sp,sp,8
 8003474:	f800283a 	ret

08003478 <_ZL10dnsRequestPKcb>:
#define DNSCLIENT_SRC_PORT_H 0xE0

#define DNS_TYPE_A 1
#define DNS_CLASS_IN 1

static void dnsRequest(const char *hostname, bool fromRam) {
 8003478:	defffa04 	addi	sp,sp,-24
 800347c:	dfc00515 	stw	ra,20(sp)
 8003480:	df000415 	stw	fp,16(sp)
 8003484:	df000404 	addi	fp,sp,16
 8003488:	e13ffe15 	stw	r4,-8(fp)
 800348c:	2805883a 	mov	r2,r5
 8003490:	e0bfff05 	stb	r2,-4(fp)
  ++dnstid_l; // increment for next request, finally wrap
 8003494:	d0a71583 	ldbu	r2,-25514(gp)
 8003498:	10800044 	addi	r2,r2,1
 800349c:	d0a71585 	stb	r2,-25514(gp)
  if (ether.dnsip[0] == 0)
 80034a0:	d0a70943 	ldbu	r2,-25563(gp)
 80034a4:	10803fcc 	andi	r2,r2,255
 80034a8:	1000041e 	bne	r2,zero,80034bc <_ZL10dnsRequestPKcb+0x44>
    memset(ether.dnsip, 8, IP_LEN); // use 8.8.8.8 Google DNS as default
 80034ac:	01800104 	movi	r6,4
 80034b0:	01400204 	movi	r5,8
 80034b4:	d1270944 	addi	r4,gp,-25563
 80034b8:	800807c0 	call	800807c <memset>
  ether.udpPrepare((DNSCLIENT_SRC_PORT_H << 8) | dnstid_l, ether.dnsip,
 80034bc:	d0a71583 	ldbu	r2,-25514(gp)
 80034c0:	10c03fcc 	andi	r3,r2,255
 80034c4:	00b80004 	movi	r2,-8192
 80034c8:	1884b03a 	or	r2,r3,r2
 80034cc:	10bfffcc 	andi	r2,r2,65535
                   DNS_PORT);
 80034d0:	01800d44 	movi	r6,53
 80034d4:	d1670944 	addi	r5,gp,-25563
 80034d8:	1009883a 	mov	r4,r2
 80034dc:	8005c300 	call	8005c30 <_ZN9EtherCard10udpPrepareEtPKht>
  memset(gPB + UDP_DATA_P, 0, 12);
 80034e0:	008200b4 	movhi	r2,2050
 80034e4:	10b01584 	addi	r2,r2,-16298
 80034e8:	01800304 	movi	r6,12
 80034ec:	000b883a 	mov	r5,zero
 80034f0:	1009883a 	mov	r4,r2
 80034f4:	800807c0 	call	800807c <memset>

  byte *p = gPB + UDP_DATA_P + 12;
 80034f8:	008200b4 	movhi	r2,2050
 80034fc:	10b01884 	addi	r2,r2,-16286
 8003500:	e0bffc15 	stw	r2,-16(fp)
  char c;
  do {
    byte n = 0;
 8003504:	e03ffd05 	stb	zero,-12(fp)
    for (;;) {
      //            c = fromRam ? *hostname : pgm_read_byte(hostname);
      c = *hostname;
 8003508:	e0bffe17 	ldw	r2,-8(fp)
 800350c:	10800003 	ldbu	r2,0(r2)
 8003510:	e0bffd45 	stb	r2,-11(fp)
      ++hostname;
 8003514:	e0bffe17 	ldw	r2,-8(fp)
 8003518:	10800044 	addi	r2,r2,1
 800351c:	e0bffe15 	stw	r2,-8(fp)
      if (c == '.' || c == 0)
 8003520:	e0bffd47 	ldb	r2,-11(fp)
 8003524:	10800ba0 	cmpeqi	r2,r2,46
 8003528:	10000b1e 	bne	r2,zero,8003558 <_ZL10dnsRequestPKcb+0xe0>
 800352c:	e0bffd47 	ldb	r2,-11(fp)
 8003530:	10000926 	beq	r2,zero,8003558 <_ZL10dnsRequestPKcb+0xe0>
        break;
      p[++n] = c;
 8003534:	e0bffd03 	ldbu	r2,-12(fp)
 8003538:	10800044 	addi	r2,r2,1
 800353c:	e0bffd05 	stb	r2,-12(fp)
 8003540:	e0bffd03 	ldbu	r2,-12(fp)
 8003544:	e0fffc17 	ldw	r3,-16(fp)
 8003548:	1885883a 	add	r2,r3,r2
 800354c:	e0fffd43 	ldbu	r3,-11(fp)
 8003550:	10c00005 	stb	r3,0(r2)

  byte *p = gPB + UDP_DATA_P + 12;
  char c;
  do {
    byte n = 0;
    for (;;) {
 8003554:	003fec06 	br	8003508 <_ZL10dnsRequestPKcb+0x90>
      ++hostname;
      if (c == '.' || c == 0)
        break;
      p[++n] = c;
    }
    *p++ = n;
 8003558:	e0bffc17 	ldw	r2,-16(fp)
 800355c:	10c00044 	addi	r3,r2,1
 8003560:	e0fffc15 	stw	r3,-16(fp)
 8003564:	e0fffd03 	ldbu	r3,-12(fp)
 8003568:	10c00005 	stb	r3,0(r2)
    p += n;
 800356c:	e0bffd03 	ldbu	r2,-12(fp)
 8003570:	e0fffc17 	ldw	r3,-16(fp)
 8003574:	1885883a 	add	r2,r3,r2
 8003578:	e0bffc15 	stw	r2,-16(fp)
  } while (c != 0);
 800357c:	e0bffd47 	ldb	r2,-11(fp)
 8003580:	10000126 	beq	r2,zero,8003588 <_ZL10dnsRequestPKcb+0x110>
                   DNS_PORT);
  memset(gPB + UDP_DATA_P, 0, 12);

  byte *p = gPB + UDP_DATA_P + 12;
  char c;
  do {
 8003584:	003fdf06 	br	8003504 <_ZL10dnsRequestPKcb+0x8c>
    }
    *p++ = n;
    p += n;
  } while (c != 0);

  *p++ = 0; // terminate with zero, means root domain.
 8003588:	e0bffc17 	ldw	r2,-16(fp)
 800358c:	10c00044 	addi	r3,r2,1
 8003590:	e0fffc15 	stw	r3,-16(fp)
 8003594:	10000005 	stb	zero,0(r2)
  *p++ = 0;
 8003598:	e0bffc17 	ldw	r2,-16(fp)
 800359c:	10c00044 	addi	r3,r2,1
 80035a0:	e0fffc15 	stw	r3,-16(fp)
 80035a4:	10000005 	stb	zero,0(r2)
  *p++ = DNS_TYPE_A;
 80035a8:	e0bffc17 	ldw	r2,-16(fp)
 80035ac:	10c00044 	addi	r3,r2,1
 80035b0:	e0fffc15 	stw	r3,-16(fp)
 80035b4:	00c00044 	movi	r3,1
 80035b8:	10c00005 	stb	r3,0(r2)
  *p++ = 0;
 80035bc:	e0bffc17 	ldw	r2,-16(fp)
 80035c0:	10c00044 	addi	r3,r2,1
 80035c4:	e0fffc15 	stw	r3,-16(fp)
 80035c8:	10000005 	stb	zero,0(r2)
  *p++ = DNS_CLASS_IN;
 80035cc:	e0bffc17 	ldw	r2,-16(fp)
 80035d0:	10c00044 	addi	r3,r2,1
 80035d4:	e0fffc15 	stw	r3,-16(fp)
 80035d8:	00c00044 	movi	r3,1
 80035dc:	10c00005 	stb	r3,0(r2)
  byte i = p - gPB - UDP_DATA_P;
 80035e0:	e0bffc17 	ldw	r2,-16(fp)
 80035e4:	1007883a 	mov	r3,r2
 80035e8:	008200b4 	movhi	r2,2050
 80035ec:	10b00b04 	addi	r2,r2,-16340
 80035f0:	1009883a 	mov	r4,r2
 80035f4:	00bff584 	movi	r2,-42
 80035f8:	1105c83a 	sub	r2,r2,r4
 80035fc:	1885883a 	add	r2,r3,r2
 8003600:	e0bffd85 	stb	r2,-10(fp)
  gPB[UDP_DATA_P] = i;
 8003604:	008200b4 	movhi	r2,2050
 8003608:	10b00b04 	addi	r2,r2,-16340
 800360c:	e0fffd83 	ldbu	r3,-10(fp)
 8003610:	10c00a85 	stb	r3,42(r2)
  gPB[UDP_DATA_P + 1] = dnstid_l;
 8003614:	d0e71583 	ldbu	r3,-25514(gp)
 8003618:	008200b4 	movhi	r2,2050
 800361c:	10b00b04 	addi	r2,r2,-16340
 8003620:	10c00ac5 	stb	r3,43(r2)
  gPB[UDP_DATA_P + 2] = 1; // flags, standard recursive query
 8003624:	008200b4 	movhi	r2,2050
 8003628:	10b00b04 	addi	r2,r2,-16340
 800362c:	00c00044 	movi	r3,1
 8003630:	10c00b05 	stb	r3,44(r2)
  gPB[UDP_DATA_P + 5] = 1; // 1 question
 8003634:	008200b4 	movhi	r2,2050
 8003638:	10b00b04 	addi	r2,r2,-16340
 800363c:	00c00044 	movi	r3,1
 8003640:	10c00bc5 	stb	r3,47(r2)
  ether.udpTransmit(i);
 8003644:	e0bffd83 	ldbu	r2,-10(fp)
 8003648:	1009883a 	mov	r4,r2
 800364c:	8005db80 	call	8005db8 <_ZN9EtherCard11udpTransmitEt>
}
 8003650:	0001883a 	nop
 8003654:	e037883a 	mov	sp,fp
 8003658:	dfc00117 	ldw	ra,4(sp)
 800365c:	df000017 	ldw	fp,0(sp)
 8003660:	dec00204 	addi	sp,sp,8
 8003664:	f800283a 	ret

08003668 <_ZL17checkForDnsAnswert>:

static bool checkForDnsAnswer(uint16_t plen) {
 8003668:	defffc04 	addi	sp,sp,-16
 800366c:	dfc00315 	stw	ra,12(sp)
 8003670:	df000215 	stw	fp,8(sp)
 8003674:	df000204 	addi	fp,sp,8
 8003678:	2005883a 	mov	r2,r4
 800367c:	e0bfff0d 	sth	r2,-4(fp)
  byte *p = gPB + UDP_DATA_P;                           // start of UDP payload
 8003680:	008200b4 	movhi	r2,2050
 8003684:	10b01584 	addi	r2,r2,-16298
 8003688:	e0bffe15 	stw	r2,-8(fp)
  if (plen < 70 || gPB[UDP_SRC_PORT_L_P] != DNS_PORT || // from DNS source port
 800368c:	e0bfff0b 	ldhu	r2,-4(fp)
 8003690:	108011b0 	cmpltui	r2,r2,70
 8003694:	10001a1e 	bne	r2,zero,8003700 <_ZL17checkForDnsAnswert+0x98>
 8003698:	008200b4 	movhi	r2,2050
 800369c:	10b00b04 	addi	r2,r2,-16340
 80036a0:	108008c3 	ldbu	r2,35(r2)
 80036a4:	10803fcc 	andi	r2,r2,255
 80036a8:	10800d58 	cmpnei	r2,r2,53
 80036ac:	1000141e 	bne	r2,zero,8003700 <_ZL17checkForDnsAnswert+0x98>
      gPB[UDP_DST_PORT_H_P] !=
 80036b0:	008200b4 	movhi	r2,2050
 80036b4:	10b00b04 	addi	r2,r2,-16340
 80036b8:	10800903 	ldbu	r2,36(r2)
  ether.udpTransmit(i);
}

static bool checkForDnsAnswer(uint16_t plen) {
  byte *p = gPB + UDP_DATA_P;                           // start of UDP payload
  if (plen < 70 || gPB[UDP_SRC_PORT_L_P] != DNS_PORT || // from DNS source port
 80036bc:	10803fcc 	andi	r2,r2,255
 80036c0:	10803818 	cmpnei	r2,r2,224
 80036c4:	10000e1e 	bne	r2,zero,8003700 <_ZL17checkForDnsAnswert+0x98>
      gPB[UDP_DST_PORT_H_P] !=
          DNSCLIENT_SRC_PORT_H || // response to same port as we sent from (MSB)
      gPB[UDP_DST_PORT_L_P] !=
 80036c8:	008200b4 	movhi	r2,2050
 80036cc:	10b00b04 	addi	r2,r2,-16340
 80036d0:	10c00943 	ldbu	r3,37(r2)
 80036d4:	d0a71583 	ldbu	r2,-25514(gp)

static bool checkForDnsAnswer(uint16_t plen) {
  byte *p = gPB + UDP_DATA_P;                           // start of UDP payload
  if (plen < 70 || gPB[UDP_SRC_PORT_L_P] != DNS_PORT || // from DNS source port
      gPB[UDP_DST_PORT_H_P] !=
          DNSCLIENT_SRC_PORT_H || // response to same port as we sent from (MSB)
 80036d8:	18c03fcc 	andi	r3,r3,255
 80036dc:	10803fcc 	andi	r2,r2,255
 80036e0:	1880071e 	bne	r3,r2,8003700 <_ZL17checkForDnsAnswert+0x98>
      gPB[UDP_DST_PORT_L_P] !=
          dnstid_l ||   // response to same port as we sent from (LSB)
      p[1] != dnstid_l) // message id same as we sent
 80036e4:	e0bffe17 	ldw	r2,-8(fp)
 80036e8:	10800044 	addi	r2,r2,1
 80036ec:	10c00003 	ldbu	r3,0(r2)
 80036f0:	d0a71583 	ldbu	r2,-25514(gp)
  byte *p = gPB + UDP_DATA_P;                           // start of UDP payload
  if (plen < 70 || gPB[UDP_SRC_PORT_L_P] != DNS_PORT || // from DNS source port
      gPB[UDP_DST_PORT_H_P] !=
          DNSCLIENT_SRC_PORT_H || // response to same port as we sent from (MSB)
      gPB[UDP_DST_PORT_L_P] !=
          dnstid_l ||   // response to same port as we sent from (LSB)
 80036f4:	18c03fcc 	andi	r3,r3,255
 80036f8:	10803fcc 	andi	r2,r2,255
 80036fc:	18800226 	beq	r3,r2,8003708 <_ZL17checkForDnsAnswert+0xa0>
      p[1] != dnstid_l) // message id same as we sent
    return false;       // not our DNS response
 8003700:	0005883a 	mov	r2,zero
 8003704:	00004d06 	br	800383c <_ZL17checkForDnsAnswert+0x1d4>
  if ((p[3] & 0x0F) != 0)
 8003708:	e0bffe17 	ldw	r2,-8(fp)
 800370c:	108000c4 	addi	r2,r2,3
 8003710:	10800003 	ldbu	r2,0(r2)
 8003714:	10803fcc 	andi	r2,r2,255
 8003718:	108003cc 	andi	r2,r2,15
 800371c:	10000226 	beq	r2,zero,8003728 <_ZL17checkForDnsAnswert+0xc0>
    return true; // DNS response received with error
 8003720:	00800044 	movi	r2,1
 8003724:	00004506 	br	800383c <_ZL17checkForDnsAnswert+0x1d4>

  p += *p; // we encoded the query len into tid
 8003728:	e0bffe17 	ldw	r2,-8(fp)
 800372c:	10800003 	ldbu	r2,0(r2)
 8003730:	10803fcc 	andi	r2,r2,255
 8003734:	e0fffe17 	ldw	r3,-8(fp)
 8003738:	1885883a 	add	r2,r3,r2
 800373c:	e0bffe15 	stw	r2,-8(fp)
  for (;;) {
    if (*p & 0xC0)
 8003740:	e0bffe17 	ldw	r2,-8(fp)
 8003744:	10800003 	ldbu	r2,0(r2)
 8003748:	10803fcc 	andi	r2,r2,255
 800374c:	1080300c 	andi	r2,r2,192
 8003750:	10000426 	beq	r2,zero,8003764 <_ZL17checkForDnsAnswert+0xfc>
      p += 2;
 8003754:	e0bffe17 	ldw	r2,-8(fp)
 8003758:	10800084 	addi	r2,r2,2
 800375c:	e0bffe15 	stw	r2,-8(fp)
 8003760:	00001206 	br	80037ac <_ZL17checkForDnsAnswert+0x144>
    else
      while (++p < gPB + plen) {
 8003764:	e0bffe17 	ldw	r2,-8(fp)
 8003768:	10800044 	addi	r2,r2,1
 800376c:	e0bffe15 	stw	r2,-8(fp)
 8003770:	e0ffff0b 	ldhu	r3,-4(fp)
 8003774:	008200b4 	movhi	r2,2050
 8003778:	10b00b04 	addi	r2,r2,-16340
 800377c:	1885883a 	add	r2,r3,r2
 8003780:	e0fffe17 	ldw	r3,-8(fp)
 8003784:	1885803a 	cmpltu	r2,r3,r2
 8003788:	10803fcc 	andi	r2,r2,255
 800378c:	10000726 	beq	r2,zero,80037ac <_ZL17checkForDnsAnswert+0x144>
        if (*p == 0) {
 8003790:	e0bffe17 	ldw	r2,-8(fp)
 8003794:	10800003 	ldbu	r2,0(r2)
 8003798:	10803fcc 	andi	r2,r2,255
 800379c:	103ff11e 	bne	r2,zero,8003764 <_ZL17checkForDnsAnswert+0xfc>
          ++p;
 80037a0:	e0bffe17 	ldw	r2,-8(fp)
 80037a4:	10800044 	addi	r2,r2,1
 80037a8:	e0bffe15 	stw	r2,-8(fp)
          break;
        }
      }
    if (p + 14 > gPB + plen)
 80037ac:	e0bffe17 	ldw	r2,-8(fp)
 80037b0:	10c00384 	addi	r3,r2,14
 80037b4:	e13fff0b 	ldhu	r4,-4(fp)
 80037b8:	008200b4 	movhi	r2,2050
 80037bc:	10b00b04 	addi	r2,r2,-16340
 80037c0:	2085883a 	add	r2,r4,r2
 80037c4:	10c01b36 	bltu	r2,r3,8003834 <_ZL17checkForDnsAnswert+0x1cc>
      break;
    if (p[1] == DNS_TYPE_A && p[9] == 4) { // type "A" and IPv4
 80037c8:	e0bffe17 	ldw	r2,-8(fp)
 80037cc:	10800044 	addi	r2,r2,1
 80037d0:	10800003 	ldbu	r2,0(r2)
 80037d4:	10803fcc 	andi	r2,r2,255
 80037d8:	10800058 	cmpnei	r2,r2,1
 80037dc:	10000c1e 	bne	r2,zero,8003810 <_ZL17checkForDnsAnswert+0x1a8>
 80037e0:	e0bffe17 	ldw	r2,-8(fp)
 80037e4:	10800244 	addi	r2,r2,9
 80037e8:	10800003 	ldbu	r2,0(r2)
 80037ec:	10803fcc 	andi	r2,r2,255
 80037f0:	10800118 	cmpnei	r2,r2,4
 80037f4:	1000061e 	bne	r2,zero,8003810 <_ZL17checkForDnsAnswert+0x1a8>
      ether.copyIp(ether.hisip, p + 10);
 80037f8:	e0bffe17 	ldw	r2,-8(fp)
 80037fc:	10800284 	addi	r2,r2,10
 8003800:	100b883a 	mov	r5,r2
 8003804:	d1270a44 	addi	r4,gp,-25559
